
build/kernel/kernel.elf:     file format elf32-littleriscv


Disassembly of section .syscall:

000000c0 <trap_entry>:
  c0:	ef010113          	addi	sp,sp,-272
  c4:	04a12823          	sw	a0,80(sp)
  c8:	04b12c23          	sw	a1,88(sp)
  cc:	06c12023          	sw	a2,96(sp)
  d0:	09112423          	sw	a7,136(sp)
  d4:	00010613          	mv	a2,sp
  d8:	4e0160ef          	jal	165b8 <handle_trap>
  dc:	34151073          	csrw	mepc,a0
  e0:	01012103          	lw	sp,16(sp)
  e4:	11010113          	addi	sp,sp,272
  e8:	10000073          	sret

Disassembly of section .vector:

00000100 <.vector>:
 100:	7010006f          	j	1000 <_start>

Disassembly of section .boot:

00000104 <_start-0xefc>:
	...

00001000 <_start>:
    1000:	00000093          	li	ra,0
    1004:	00000113          	li	sp,0
    1008:	00000193          	li	gp,0
    100c:	00000213          	li	tp,0
    1010:	00000293          	li	t0,0
    1014:	00000313          	li	t1,0
    1018:	00000393          	li	t2,0
    101c:	00000413          	li	s0,0
    1020:	00000493          	li	s1,0
    1024:	00000513          	li	a0,0
    1028:	00000593          	li	a1,0
    102c:	00000613          	li	a2,0
    1030:	00000693          	li	a3,0
    1034:	00000713          	li	a4,0
    1038:	00000793          	li	a5,0
    103c:	00000813          	li	a6,0
    1040:	00000893          	li	a7,0
    1044:	00000913          	li	s2,0
    1048:	00000993          	li	s3,0
    104c:	00000a13          	li	s4,0
    1050:	00000a93          	li	s5,0
    1054:	00000b13          	li	s6,0
    1058:	00000b93          	li	s7,0
    105c:	00000c13          	li	s8,0
    1060:	00000c93          	li	s9,0
    1064:	00000d13          	li	s10,0
    1068:	00000d93          	li	s11,0
    106c:	00000e13          	li	t3,0
    1070:	00000e93          	li	t4,0
    1074:	00000f13          	li	t5,0
    1078:	00000f93          	li	t6,0
    107c:	08000293          	li	t0,128
    1080:	3002a073          	csrs	mstatus,t0
    1084:	00800293          	li	t0,8
    1088:	08000313          	li	t1,128
    108c:	01f31313          	slli	t1,t1,0x1f
    1090:	0002d117          	auipc	sp,0x2d
    1094:	f7010113          	addi	sp,sp,-144 # 2e000 <current_fault>
    1098:	00002417          	auipc	s0,0x2
    109c:	16840413          	addi	s0,s0,360 # 3200 <init_kernel>
    10a0:	53900593          	li	a1,1337
    10a4:	00002517          	auipc	a0,0x2
    10a8:	15c50513          	addi	a0,a0,348 # 3200 <init_kernel>
    10ac:	00002417          	auipc	s0,0x2
    10b0:	15440413          	addi	s0,s0,340 # 3200 <init_kernel>
    10b4:	00040067          	jr	s0

000010b8 <__clzsi2>:
    10b8:	00000013          	nop

000010bc <__ctzsi2>:
    10bc:	00000013          	nop
	...

00002000 <pg_dir>:
	...

00003000 <insert_region_excluded>:
    3000:	fe010113          	addi	sp,sp,-32
    3004:	00812e23          	sw	s0,28(sp)
    3008:	02010413          	addi	s0,sp,32
    300c:	fea42423          	sw	a0,-24(s0)
    3010:	feb42623          	sw	a1,-20(s0)
    3014:	fec42023          	sw	a2,-32(s0)
    3018:	fed42223          	sw	a3,-28(s0)
    301c:	00000013          	nop
    3020:	00070513          	mv	a0,a4
    3024:	00078593          	mv	a1,a5
    3028:	01c12403          	lw	s0,28(sp)
    302c:	02010113          	addi	sp,sp,32
    3030:	00008067          	ret

00003034 <init_freemem>:
    3034:	fe010113          	addi	sp,sp,-32
    3038:	00812e23          	sw	s0,28(sp)
    303c:	02010413          	addi	s0,sp,32
    3040:	fea42423          	sw	a0,-24(s0)
    3044:	feb42623          	sw	a1,-20(s0)
    3048:	00000013          	nop
    304c:	01c12403          	lw	s0,28(sp)
    3050:	02010113          	addi	sp,sp,32
    3054:	00008067          	ret

00003058 <init_irqs>:
    3058:	fe010113          	addi	sp,sp,-32
    305c:	00812e23          	sw	s0,28(sp)
    3060:	02010413          	addi	s0,sp,32
    3064:	fea42423          	sw	a0,-24(s0)
    3068:	feb42623          	sw	a1,-20(s0)
    306c:	00000013          	nop
    3070:	01c12403          	lw	s0,28(sp)
    3074:	02010113          	addi	sp,sp,32
    3078:	00008067          	ret

0000307c <create_it_frame_cap>:
    307c:	fe010113          	addi	sp,sp,-32
    3080:	00812e23          	sw	s0,28(sp)
    3084:	02010413          	addi	s0,sp,32
    3088:	fea42623          	sw	a0,-20(s0)
    308c:	feb42423          	sw	a1,-24(s0)
    3090:	fec42223          	sw	a2,-28(s0)
    3094:	fed42023          	sw	a3,-32(s0)
    3098:	00000013          	nop
    309c:	00070513          	mv	a0,a4
    30a0:	00078593          	mv	a1,a5
    30a4:	01c12403          	lw	s0,28(sp)
    30a8:	02010113          	addi	sp,sp,32
    30ac:	00008067          	ret

000030b0 <create_unmapped_it_frame_cap>:
    30b0:	fe010113          	addi	sp,sp,-32
    30b4:	00812e23          	sw	s0,28(sp)
    30b8:	02010413          	addi	s0,sp,32
    30bc:	fea42623          	sw	a0,-20(s0)
    30c0:	feb42423          	sw	a1,-24(s0)
    30c4:	00000013          	nop
    30c8:	00070513          	mv	a0,a4
    30cc:	00078593          	mv	a1,a5
    30d0:	01c12403          	lw	s0,28(sp)
    30d4:	02010113          	addi	sp,sp,32
    30d8:	00008067          	ret

000030dc <create_mapped_it_frame_cap>:
    30dc:	fd010113          	addi	sp,sp,-48
    30e0:	02812623          	sw	s0,44(sp)
    30e4:	03010413          	addi	s0,sp,48
    30e8:	fea42423          	sw	a0,-24(s0)
    30ec:	feb42623          	sw	a1,-20(s0)
    30f0:	fec42223          	sw	a2,-28(s0)
    30f4:	fed42023          	sw	a3,-32(s0)
    30f8:	fce42e23          	sw	a4,-36(s0)
    30fc:	fcf42c23          	sw	a5,-40(s0)
    3100:	00000013          	nop
    3104:	00070513          	mv	a0,a4
    3108:	00078593          	mv	a1,a5
    310c:	02c12403          	lw	s0,44(sp)
    3110:	03010113          	addi	sp,sp,48
    3114:	00008067          	ret

00003118 <create_it_page_table_cap>:
    3118:	fd010113          	addi	sp,sp,-48
    311c:	02812623          	sw	s0,44(sp)
    3120:	03010413          	addi	s0,sp,48
    3124:	fea42423          	sw	a0,-24(s0)
    3128:	feb42623          	sw	a1,-20(s0)
    312c:	fec42223          	sw	a2,-28(s0)
    3130:	fed42023          	sw	a3,-32(s0)
    3134:	fce42e23          	sw	a4,-36(s0)
    3138:	00000013          	nop
    313c:	00070513          	mv	a0,a4
    3140:	00078593          	mv	a1,a5
    3144:	02c12403          	lw	s0,44(sp)
    3148:	03010113          	addi	sp,sp,48
    314c:	00008067          	ret

00003150 <create_device_frames>:
    3150:	fe010113          	addi	sp,sp,-32
    3154:	00812e23          	sw	s0,28(sp)
    3158:	02010413          	addi	s0,sp,32
    315c:	fea42423          	sw	a0,-24(s0)
    3160:	feb42623          	sw	a1,-20(s0)
    3164:	00100793          	li	a5,1
    3168:	00078513          	mv	a0,a5
    316c:	01c12403          	lw	s0,28(sp)
    3170:	02010113          	addi	sp,sp,32
    3174:	00008067          	ret

00003178 <init_cpu>:
    3178:	ff010113          	addi	sp,sp,-16
    317c:	00812623          	sw	s0,12(sp)
    3180:	01010413          	addi	s0,sp,16
    3184:	00000013          	nop
    3188:	00c12403          	lw	s0,12(sp)
    318c:	01010113          	addi	sp,sp,16
    3190:	00008067          	ret

00003194 <init_plat>:
    3194:	ff010113          	addi	sp,sp,-16
    3198:	00112623          	sw	ra,12(sp)
    319c:	00812423          	sw	s0,8(sp)
    31a0:	01010413          	addi	s0,sp,16
    31a4:	6c4010ef          	jal	4868 <initIRQController>
    31a8:	688010ef          	jal	4830 <initTimer>
    31ac:	6a0010ef          	jal	484c <initL2Cache>
    31b0:	00000013          	nop
    31b4:	00c12083          	lw	ra,12(sp)
    31b8:	00812403          	lw	s0,8(sp)
    31bc:	01010113          	addi	sp,sp,16
    31c0:	00008067          	ret

000031c4 <try_init_kernel>:
    31c4:	fe010113          	addi	sp,sp,-32
    31c8:	00112e23          	sw	ra,28(sp)
    31cc:	00812c23          	sw	s0,24(sp)
    31d0:	02010413          	addi	s0,sp,32
    31d4:	fea42623          	sw	a0,-20(s0)
    31d8:	feb42423          	sw	a1,-24(s0)
    31dc:	fec42223          	sw	a2,-28(s0)
    31e0:	fed42023          	sw	a3,-32(s0)
    31e4:	0d8000ef          	jal	32bc <map_kernel_window>
    31e8:	00100793          	li	a5,1
    31ec:	00078513          	mv	a0,a5
    31f0:	01c12083          	lw	ra,28(sp)
    31f4:	01812403          	lw	s0,24(sp)
    31f8:	02010113          	addi	sp,sp,32
    31fc:	00008067          	ret

00003200 <init_kernel>:
    3200:	fe010113          	addi	sp,sp,-32
    3204:	00112e23          	sw	ra,28(sp)
    3208:	00812c23          	sw	s0,24(sp)
    320c:	02010413          	addi	s0,sp,32
    3210:	fea42623          	sw	a0,-20(s0)
    3214:	feb42423          	sw	a1,-24(s0)
    3218:	fec42223          	sw	a2,-28(s0)
    321c:	fed42023          	sw	a3,-32(s0)
    3220:	000037b7          	lui	a5,0x3
    3224:	20078793          	addi	a5,a5,512 # 3200 <init_kernel>
    3228:	53900593          	li	a1,1337
    322c:	00078513          	mv	a0,a5
    3230:	670130ef          	jal	168a0 <vm_boot>
    3234:	000287b7          	lui	a5,0x28
    3238:	01878513          	addi	a0,a5,24 # 28018 <halt_message+0x12d8>
    323c:	53c130ef          	jal	16778 <printstr>
    3240:	00000513          	li	a0,0
    3244:	630130ef          	jal	16874 <terminate>
    3248:	0000006f          	j	3248 <init_kernel+0x48>

0000324c <Arch_configureIdleThread>:
    324c:	fe010113          	addi	sp,sp,-32
    3250:	00812e23          	sw	s0,28(sp)
    3254:	02010413          	addi	s0,sp,32
    3258:	fea42623          	sw	a0,-20(s0)
    325c:	00000013          	nop
    3260:	01c12403          	lw	s0,28(sp)
    3264:	02010113          	addi	sp,sp,32
    3268:	00008067          	ret

0000326c <map_it_pt_cap>:
    326c:	fe010113          	addi	sp,sp,-32
    3270:	00812e23          	sw	s0,28(sp)
    3274:	02010413          	addi	s0,sp,32
    3278:	fea42423          	sw	a0,-24(s0)
    327c:	feb42623          	sw	a1,-20(s0)
    3280:	00000013          	nop
    3284:	01c12403          	lw	s0,28(sp)
    3288:	02010113          	addi	sp,sp,32
    328c:	00008067          	ret

00003290 <map_kernel_frame>:
    3290:	fe010113          	addi	sp,sp,-32
    3294:	00812e23          	sw	s0,28(sp)
    3298:	02010413          	addi	s0,sp,32
    329c:	fea42623          	sw	a0,-20(s0)
    32a0:	feb42423          	sw	a1,-24(s0)
    32a4:	fec42223          	sw	a2,-28(s0)
    32a8:	fed42023          	sw	a3,-32(s0)
    32ac:	00000013          	nop
    32b0:	01c12403          	lw	s0,28(sp)
    32b4:	02010113          	addi	sp,sp,32
    32b8:	00008067          	ret

000032bc <map_kernel_window>:
    32bc:	ff010113          	addi	sp,sp,-16
    32c0:	00812623          	sw	s0,12(sp)
    32c4:	01010413          	addi	s0,sp,16
    32c8:	00000013          	nop
    32cc:	00c12403          	lw	s0,12(sp)
    32d0:	01010113          	addi	sp,sp,16
    32d4:	00008067          	ret

000032d8 <activate_global_pd>:
    32d8:	ff010113          	addi	sp,sp,-16
    32dc:	00812623          	sw	s0,12(sp)
    32e0:	01010413          	addi	s0,sp,16
    32e4:	00000013          	nop
    32e8:	00c12403          	lw	s0,12(sp)
    32ec:	01010113          	addi	sp,sp,16
    32f0:	00008067          	ret

000032f4 <write_it_asid_pool>:
    32f4:	fe010113          	addi	sp,sp,-32
    32f8:	00812e23          	sw	s0,28(sp)
    32fc:	02010413          	addi	s0,sp,32
    3300:	fea42423          	sw	a0,-24(s0)
    3304:	feb42623          	sw	a1,-20(s0)
    3308:	fec42023          	sw	a2,-32(s0)
    330c:	fed42223          	sw	a3,-28(s0)
    3310:	00000013          	nop
    3314:	01c12403          	lw	s0,28(sp)
    3318:	02010113          	addi	sp,sp,32
    331c:	00008067          	ret

00003320 <insert_region>:
    3320:	fd010113          	addi	sp,sp,-48
    3324:	02112623          	sw	ra,44(sp)
    3328:	02812423          	sw	s0,40(sp)
    332c:	03010413          	addi	s0,sp,48
    3330:	fca42c23          	sw	a0,-40(s0)
    3334:	fcb42e23          	sw	a1,-36(s0)
    3338:	fd842703          	lw	a4,-40(s0)
    333c:	fdc42783          	lw	a5,-36(s0)
    3340:	00e7fe63          	bleu	a4,a5,335c <insert_region+0x3c>
    3344:	000287b7          	lui	a5,0x28
    3348:	10878513          	addi	a0,a5,264 # 28108 <syscallMessage+0x90>
    334c:	4d8130ef          	jal	16824 <cputstring>
    3350:	00300513          	li	a0,3
    3354:	520130ef          	jal	16874 <terminate>
    3358:	0080006f          	j	3360 <insert_region+0x40>
    335c:	00000013          	nop
    3360:	fd842503          	lw	a0,-40(s0)
    3364:	fdc42583          	lw	a1,-36(s0)
    3368:	738120ef          	jal	15aa0 <is_reg_empty>
    336c:	00050793          	mv	a5,a0
    3370:	00078663          	beqz	a5,337c <insert_region+0x5c>
    3374:	00100793          	li	a5,1
    3378:	07c0006f          	j	33f4 <insert_region+0xd4>
    337c:	fe042623          	sw	zero,-20(s0)
    3380:	0640006f          	j	33e4 <insert_region+0xc4>
    3384:	000057b7          	lui	a5,0x5
    3388:	fec42703          	lw	a4,-20(s0)
    338c:	00371713          	slli	a4,a4,0x3
    3390:	9e478793          	addi	a5,a5,-1564 # 49e4 <ndks_boot>
    3394:	00f707b3          	add	a5,a4,a5
    3398:	0007a503          	lw	a0,0(a5)
    339c:	0047a583          	lw	a1,4(a5)
    33a0:	700120ef          	jal	15aa0 <is_reg_empty>
    33a4:	00050793          	mv	a5,a0
    33a8:	02078863          	beqz	a5,33d8 <insert_region+0xb8>
    33ac:	000057b7          	lui	a5,0x5
    33b0:	fec42703          	lw	a4,-20(s0)
    33b4:	00371713          	slli	a4,a4,0x3
    33b8:	9e478793          	addi	a5,a5,-1564 # 49e4 <ndks_boot>
    33bc:	00f707b3          	add	a5,a4,a5
    33c0:	fd842703          	lw	a4,-40(s0)
    33c4:	00e7a023          	sw	a4,0(a5)
    33c8:	fdc42703          	lw	a4,-36(s0)
    33cc:	00e7a223          	sw	a4,4(a5)
    33d0:	00100793          	li	a5,1
    33d4:	0200006f          	j	33f4 <insert_region+0xd4>
    33d8:	fec42783          	lw	a5,-20(s0)
    33dc:	00178793          	addi	a5,a5,1
    33e0:	fef42623          	sw	a5,-20(s0)
    33e4:	fec42703          	lw	a4,-20(s0)
    33e8:	00100793          	li	a5,1
    33ec:	f8e7fce3          	bleu	a4,a5,3384 <insert_region+0x64>
    33f0:	00000793          	li	a5,0
    33f4:	00078513          	mv	a0,a5
    33f8:	02c12083          	lw	ra,44(sp)
    33fc:	02812403          	lw	s0,40(sp)
    3400:	03010113          	addi	sp,sp,48
    3404:	00008067          	ret

00003408 <reg_size>:
    3408:	fe010113          	addi	sp,sp,-32
    340c:	00812e23          	sw	s0,28(sp)
    3410:	02010413          	addi	s0,sp,32
    3414:	fea42423          	sw	a0,-24(s0)
    3418:	feb42623          	sw	a1,-20(s0)
    341c:	fec42703          	lw	a4,-20(s0)
    3420:	fe842783          	lw	a5,-24(s0)
    3424:	40f707b3          	sub	a5,a4,a5
    3428:	00078513          	mv	a0,a5
    342c:	01c12403          	lw	s0,28(sp)
    3430:	02010113          	addi	sp,sp,32
    3434:	00008067          	ret

00003438 <alloc_region>:
    3438:	fa010113          	addi	sp,sp,-96
    343c:	04112e23          	sw	ra,92(sp)
    3440:	04812c23          	sw	s0,88(sp)
    3444:	04912a23          	sw	s1,84(sp)
    3448:	06010413          	addi	s0,sp,96
    344c:	faa42623          	sw	a0,-84(s0)
    3450:	fe042423          	sw	zero,-24(s0)
    3454:	fe042023          	sw	zero,-32(s0)
    3458:	fe042223          	sw	zero,-28(s0)
    345c:	fc042c23          	sw	zero,-40(s0)
    3460:	fc042e23          	sw	zero,-36(s0)
    3464:	fc042823          	sw	zero,-48(s0)
    3468:	fc042a23          	sw	zero,-44(s0)
    346c:	fe042623          	sw	zero,-20(s0)
    3470:	3140006f          	j	3784 <alloc_region+0x34c>
    3474:	000057b7          	lui	a5,0x5
    3478:	fec42703          	lw	a4,-20(s0)
    347c:	00371713          	slli	a4,a4,0x3
    3480:	9e478793          	addi	a5,a5,-1564 # 49e4 <ndks_boot>
    3484:	00f707b3          	add	a5,a4,a5
    3488:	0007a783          	lw	a5,0(a5)
    348c:	fff78713          	addi	a4,a5,-1
    3490:	fac42783          	lw	a5,-84(s0)
    3494:	00f757b3          	srl	a5,a4,a5
    3498:	00178713          	addi	a4,a5,1
    349c:	fac42783          	lw	a5,-84(s0)
    34a0:	00f71733          	sll	a4,a4,a5
    34a4:	000057b7          	lui	a5,0x5
    34a8:	fec42683          	lw	a3,-20(s0)
    34ac:	00369693          	slli	a3,a3,0x3
    34b0:	9e478793          	addi	a5,a5,-1564 # 49e4 <ndks_boot>
    34b4:	00f687b3          	add	a5,a3,a5
    34b8:	0007a783          	lw	a5,0(a5)
    34bc:	40f70733          	sub	a4,a4,a5
    34c0:	000056b7          	lui	a3,0x5
    34c4:	fec42783          	lw	a5,-20(s0)
    34c8:	9e468693          	addi	a3,a3,-1564 # 49e4 <ndks_boot>
    34cc:	00379793          	slli	a5,a5,0x3
    34d0:	00f687b3          	add	a5,a3,a5
    34d4:	0047a683          	lw	a3,4(a5)
    34d8:	00005637          	lui	a2,0x5
    34dc:	fec42783          	lw	a5,-20(s0)
    34e0:	9e460613          	addi	a2,a2,-1564 # 49e4 <ndks_boot>
    34e4:	00379793          	slli	a5,a5,0x3
    34e8:	00f607b3          	add	a5,a2,a5
    34ec:	0047a603          	lw	a2,4(a5)
    34f0:	fac42783          	lw	a5,-84(s0)
    34f4:	00f65633          	srl	a2,a2,a5
    34f8:	fac42783          	lw	a5,-84(s0)
    34fc:	00f617b3          	sll	a5,a2,a5
    3500:	40f687b3          	sub	a5,a3,a5
    3504:	04f77a63          	bleu	a5,a4,3558 <alloc_region+0x120>
    3508:	000057b7          	lui	a5,0x5
    350c:	fec42703          	lw	a4,-20(s0)
    3510:	00371713          	slli	a4,a4,0x3
    3514:	9e478793          	addi	a5,a5,-1564 # 49e4 <ndks_boot>
    3518:	00f707b3          	add	a5,a4,a5
    351c:	0007a783          	lw	a5,0(a5)
    3520:	fff78713          	addi	a4,a5,-1
    3524:	fac42783          	lw	a5,-84(s0)
    3528:	00f757b3          	srl	a5,a4,a5
    352c:	00178713          	addi	a4,a5,1
    3530:	fac42783          	lw	a5,-84(s0)
    3534:	00f717b3          	sll	a5,a4,a5
    3538:	fcf42423          	sw	a5,-56(s0)
    353c:	fc842703          	lw	a4,-56(s0)
    3540:	00100693          	li	a3,1
    3544:	fac42783          	lw	a5,-84(s0)
    3548:	00f697b3          	sll	a5,a3,a5
    354c:	00f707b3          	add	a5,a4,a5
    3550:	fcf42623          	sw	a5,-52(s0)
    3554:	0480006f          	j	359c <alloc_region+0x164>
    3558:	00005737          	lui	a4,0x5
    355c:	fec42783          	lw	a5,-20(s0)
    3560:	9e470713          	addi	a4,a4,-1564 # 49e4 <ndks_boot>
    3564:	00379793          	slli	a5,a5,0x3
    3568:	00f707b3          	add	a5,a4,a5
    356c:	0047a703          	lw	a4,4(a5)
    3570:	fac42783          	lw	a5,-84(s0)
    3574:	00f75733          	srl	a4,a4,a5
    3578:	fac42783          	lw	a5,-84(s0)
    357c:	00f717b3          	sll	a5,a4,a5
    3580:	fcf42623          	sw	a5,-52(s0)
    3584:	fcc42703          	lw	a4,-52(s0)
    3588:	00100693          	li	a3,1
    358c:	fac42783          	lw	a5,-84(s0)
    3590:	00f697b3          	sll	a5,a3,a5
    3594:	40f707b3          	sub	a5,a4,a5
    3598:	fcf42423          	sw	a5,-56(s0)
    359c:	fcc42703          	lw	a4,-52(s0)
    35a0:	fc842783          	lw	a5,-56(s0)
    35a4:	1ce7fa63          	bleu	a4,a5,3778 <alloc_region+0x340>
    35a8:	fc842703          	lw	a4,-56(s0)
    35ac:	000057b7          	lui	a5,0x5
    35b0:	fec42683          	lw	a3,-20(s0)
    35b4:	00369693          	slli	a3,a3,0x3
    35b8:	9e478793          	addi	a5,a5,-1564 # 49e4 <ndks_boot>
    35bc:	00f687b3          	add	a5,a3,a5
    35c0:	0007a783          	lw	a5,0(a5)
    35c4:	1af76a63          	bltu	a4,a5,3778 <alloc_region+0x340>
    35c8:	fcc42703          	lw	a4,-52(s0)
    35cc:	000056b7          	lui	a3,0x5
    35d0:	fec42783          	lw	a5,-20(s0)
    35d4:	9e468693          	addi	a3,a3,-1564 # 49e4 <ndks_boot>
    35d8:	00379793          	slli	a5,a5,0x3
    35dc:	00f687b3          	add	a5,a3,a5
    35e0:	0047a783          	lw	a5,4(a5)
    35e4:	18e7ea63          	bltu	a5,a4,3778 <alloc_region+0x340>
    35e8:	fc842703          	lw	a4,-56(s0)
    35ec:	000057b7          	lui	a5,0x5
    35f0:	fec42683          	lw	a3,-20(s0)
    35f4:	00369693          	slli	a3,a3,0x3
    35f8:	9e478793          	addi	a5,a5,-1564 # 49e4 <ndks_boot>
    35fc:	00f687b3          	add	a5,a3,a5
    3600:	0007a783          	lw	a5,0(a5)
    3604:	40f70733          	sub	a4,a4,a5
    3608:	000056b7          	lui	a3,0x5
    360c:	fec42783          	lw	a5,-20(s0)
    3610:	9e468693          	addi	a3,a3,-1564 # 49e4 <ndks_boot>
    3614:	00379793          	slli	a5,a5,0x3
    3618:	00f687b3          	add	a5,a3,a5
    361c:	0047a683          	lw	a3,4(a5)
    3620:	fcc42783          	lw	a5,-52(s0)
    3624:	40f687b3          	sub	a5,a3,a5
    3628:	04f77863          	bleu	a5,a4,3678 <alloc_region+0x240>
    362c:	000057b7          	lui	a5,0x5
    3630:	fec42703          	lw	a4,-20(s0)
    3634:	00371713          	slli	a4,a4,0x3
    3638:	9e478793          	addi	a5,a5,-1564 # 49e4 <ndks_boot>
    363c:	00f707b3          	add	a5,a4,a5
    3640:	0007a783          	lw	a5,0(a5)
    3644:	fcf42023          	sw	a5,-64(s0)
    3648:	fc842783          	lw	a5,-56(s0)
    364c:	fcf42223          	sw	a5,-60(s0)
    3650:	fcc42783          	lw	a5,-52(s0)
    3654:	faf42c23          	sw	a5,-72(s0)
    3658:	00005737          	lui	a4,0x5
    365c:	fec42783          	lw	a5,-20(s0)
    3660:	9e470713          	addi	a4,a4,-1564 # 49e4 <ndks_boot>
    3664:	00379793          	slli	a5,a5,0x3
    3668:	00f707b3          	add	a5,a4,a5
    366c:	0047a783          	lw	a5,4(a5)
    3670:	faf42e23          	sw	a5,-68(s0)
    3674:	04c0006f          	j	36c0 <alloc_region+0x288>
    3678:	000057b7          	lui	a5,0x5
    367c:	fec42703          	lw	a4,-20(s0)
    3680:	00371713          	slli	a4,a4,0x3
    3684:	9e478793          	addi	a5,a5,-1564 # 49e4 <ndks_boot>
    3688:	00f707b3          	add	a5,a4,a5
    368c:	0007a783          	lw	a5,0(a5)
    3690:	faf42c23          	sw	a5,-72(s0)
    3694:	fc842783          	lw	a5,-56(s0)
    3698:	faf42e23          	sw	a5,-68(s0)
    369c:	fcc42783          	lw	a5,-52(s0)
    36a0:	fcf42023          	sw	a5,-64(s0)
    36a4:	00005737          	lui	a4,0x5
    36a8:	fec42783          	lw	a5,-20(s0)
    36ac:	9e470713          	addi	a4,a4,-1564 # 49e4 <ndks_boot>
    36b0:	00379793          	slli	a5,a5,0x3
    36b4:	00f707b3          	add	a5,a4,a5
    36b8:	0047a783          	lw	a5,4(a5)
    36bc:	fcf42223          	sw	a5,-60(s0)
    36c0:	fe042503          	lw	a0,-32(s0)
    36c4:	fe442583          	lw	a1,-28(s0)
    36c8:	3d8120ef          	jal	15aa0 <is_reg_empty>
    36cc:	00050793          	mv	a5,a0
    36d0:	06079863          	bnez	a5,3740 <alloc_region+0x308>
    36d4:	fc042503          	lw	a0,-64(s0)
    36d8:	fc442583          	lw	a1,-60(s0)
    36dc:	d2dff0ef          	jal	3408 <reg_size>
    36e0:	00050493          	mv	s1,a0
    36e4:	fd842503          	lw	a0,-40(s0)
    36e8:	fdc42583          	lw	a1,-36(s0)
    36ec:	d1dff0ef          	jal	3408 <reg_size>
    36f0:	00050793          	mv	a5,a0
    36f4:	04f4e663          	bltu	s1,a5,3740 <alloc_region+0x308>
    36f8:	fc042503          	lw	a0,-64(s0)
    36fc:	fc442583          	lw	a1,-60(s0)
    3700:	d09ff0ef          	jal	3408 <reg_size>
    3704:	00050493          	mv	s1,a0
    3708:	fd842503          	lw	a0,-40(s0)
    370c:	fdc42583          	lw	a1,-36(s0)
    3710:	cf9ff0ef          	jal	3408 <reg_size>
    3714:	00050793          	mv	a5,a0
    3718:	06f49063          	bne	s1,a5,3778 <alloc_region+0x340>
    371c:	fb842503          	lw	a0,-72(s0)
    3720:	fbc42583          	lw	a1,-68(s0)
    3724:	ce5ff0ef          	jal	3408 <reg_size>
    3728:	00050493          	mv	s1,a0
    372c:	fd042503          	lw	a0,-48(s0)
    3730:	fd442583          	lw	a1,-44(s0)
    3734:	cd5ff0ef          	jal	3408 <reg_size>
    3738:	00050793          	mv	a5,a0
    373c:	02f4fe63          	bleu	a5,s1,3778 <alloc_region+0x340>
    3740:	fc842783          	lw	a5,-56(s0)
    3744:	fef42023          	sw	a5,-32(s0)
    3748:	fcc42783          	lw	a5,-52(s0)
    374c:	fef42223          	sw	a5,-28(s0)
    3750:	fc042783          	lw	a5,-64(s0)
    3754:	fcf42c23          	sw	a5,-40(s0)
    3758:	fc442783          	lw	a5,-60(s0)
    375c:	fcf42e23          	sw	a5,-36(s0)
    3760:	fb842783          	lw	a5,-72(s0)
    3764:	fcf42823          	sw	a5,-48(s0)
    3768:	fbc42783          	lw	a5,-68(s0)
    376c:	fcf42a23          	sw	a5,-44(s0)
    3770:	fec42783          	lw	a5,-20(s0)
    3774:	fef42423          	sw	a5,-24(s0)
    3778:	fec42783          	lw	a5,-20(s0)
    377c:	00178793          	addi	a5,a5,1
    3780:	fef42623          	sw	a5,-20(s0)
    3784:	fec42703          	lw	a4,-20(s0)
    3788:	00100793          	li	a5,1
    378c:	cee7f4e3          	bleu	a4,a5,3474 <alloc_region+0x3c>
    3790:	fe042503          	lw	a0,-32(s0)
    3794:	fe442583          	lw	a1,-28(s0)
    3798:	308120ef          	jal	15aa0 <is_reg_empty>
    379c:	00050793          	mv	a5,a0
    37a0:	00078c63          	beqz	a5,37b8 <alloc_region+0x380>
    37a4:	000287b7          	lui	a5,0x28
    37a8:	13078513          	addi	a0,a5,304 # 28130 <syscallMessage+0xb8>
    37ac:	6d9180ef          	jal	1c684 <puts>
    37b0:	00000793          	li	a5,0
    37b4:	0740006f          	j	3828 <alloc_region+0x3f0>
    37b8:	000057b7          	lui	a5,0x5
    37bc:	fe842703          	lw	a4,-24(s0)
    37c0:	00371713          	slli	a4,a4,0x3
    37c4:	9e478793          	addi	a5,a5,-1564 # 49e4 <ndks_boot>
    37c8:	00f707b3          	add	a5,a4,a5
    37cc:	0007a023          	sw	zero,0(a5)
    37d0:	00005737          	lui	a4,0x5
    37d4:	fe842783          	lw	a5,-24(s0)
    37d8:	9e470713          	addi	a4,a4,-1564 # 49e4 <ndks_boot>
    37dc:	00379793          	slli	a5,a5,0x3
    37e0:	00f707b3          	add	a5,a4,a5
    37e4:	0007a223          	sw	zero,4(a5)
    37e8:	fd042503          	lw	a0,-48(s0)
    37ec:	fd442583          	lw	a1,-44(s0)
    37f0:	b31ff0ef          	jal	3320 <insert_region>
    37f4:	fd842503          	lw	a0,-40(s0)
    37f8:	fdc42583          	lw	a1,-36(s0)
    37fc:	b25ff0ef          	jal	3320 <insert_region>
    3800:	00050793          	mv	a5,a0
    3804:	02079063          	bnez	a5,3824 <alloc_region+0x3ec>
    3808:	fdc42703          	lw	a4,-36(s0)
    380c:	fd842783          	lw	a5,-40(s0)
    3810:	40f707b3          	sub	a5,a4,a5
    3814:	00078593          	mv	a1,a5
    3818:	000287b7          	lui	a5,0x28
    381c:	15878513          	addi	a0,a5,344 # 28158 <syscallMessage+0xe0>
    3820:	5f9180ef          	jal	1c618 <printf>
    3824:	fe042783          	lw	a5,-32(s0)
    3828:	00078513          	mv	a0,a5
    382c:	05c12083          	lw	ra,92(sp)
    3830:	05812403          	lw	s0,88(sp)
    3834:	05412483          	lw	s1,84(sp)
    3838:	06010113          	addi	sp,sp,96
    383c:	00008067          	ret

00003840 <write_slot>:
    3840:	fe010113          	addi	sp,sp,-32
    3844:	00112e23          	sw	ra,28(sp)
    3848:	00812c23          	sw	s0,24(sp)
    384c:	02010413          	addi	s0,sp,32
    3850:	fea42623          	sw	a0,-20(s0)
    3854:	feb42223          	sw	a1,-28(s0)
    3858:	fec42423          	sw	a2,-24(s0)
    385c:	fec42783          	lw	a5,-20(s0)
    3860:	fe442703          	lw	a4,-28(s0)
    3864:	00e7a023          	sw	a4,0(a5)
    3868:	fe842703          	lw	a4,-24(s0)
    386c:	00e7a223          	sw	a4,4(a5)
    3870:	fec42583          	lw	a1,-20(s0)
    3874:	00000513          	li	a0,0
    3878:	380150ef          	jal	18bf8 <cdtInsert>
    387c:	00000013          	nop
    3880:	01c12083          	lw	ra,28(sp)
    3884:	01812403          	lw	s0,24(sp)
    3888:	02010113          	addi	sp,sp,32
    388c:	00008067          	ret

00003890 <create_root_cnode>:
    3890:	fd010113          	addi	sp,sp,-48
    3894:	02112623          	sw	ra,44(sp)
    3898:	02812423          	sw	s0,40(sp)
    389c:	03212223          	sw	s2,36(sp)
    38a0:	03312023          	sw	s3,32(sp)
    38a4:	03010413          	addi	s0,sp,48
    38a8:	000057b7          	lui	a5,0x5
    38ac:	9e478793          	addi	a5,a5,-1564 # 49e4 <ndks_boot>
    38b0:	00010737          	lui	a4,0x10
    38b4:	00e7ac23          	sw	a4,24(a5)
    38b8:	01400513          	li	a0,20
    38bc:	b7dff0ef          	jal	3438 <alloc_region>
    38c0:	fea42623          	sw	a0,-20(s0)
    38c4:	fec42783          	lw	a5,-20(s0)
    38c8:	02079463          	bnez	a5,38f0 <create_root_cnode+0x60>
    38cc:	000287b7          	lui	a5,0x28
    38d0:	1b478513          	addi	a0,a5,436 # 281b4 <syscallMessage+0x13c>
    38d4:	5b1180ef          	jal	1c684 <puts>
    38d8:	1580e0ef          	jal	11a30 <cap_null_cap_new>
    38dc:	00050713          	mv	a4,a0
    38e0:	00058793          	mv	a5,a1
    38e4:	fee42223          	sw	a4,-28(s0)
    38e8:	fef42423          	sw	a5,-24(s0)
    38ec:	0600006f          	j	394c <create_root_cnode+0xbc>
    38f0:	fec42783          	lw	a5,-20(s0)
    38f4:	001005b7          	lui	a1,0x100
    38f8:	00078513          	mv	a0,a5
    38fc:	00c230ef          	jal	26908 <memzero>
    3900:	fec42683          	lw	a3,-20(s0)
    3904:	00000613          	li	a2,0
    3908:	01000593          	li	a1,16
    390c:	01000513          	li	a0,16
    3910:	4f00f0ef          	jal	12e00 <cap_cnode_cap_new>
    3914:	00050713          	mv	a4,a0
    3918:	00058793          	mv	a5,a1
    391c:	fce42e23          	sw	a4,-36(s0)
    3920:	fef42023          	sw	a5,-32(s0)
    3924:	fec42783          	lw	a5,-20(s0)
    3928:	02078793          	addi	a5,a5,32
    392c:	fdc42583          	lw	a1,-36(s0)
    3930:	fe042603          	lw	a2,-32(s0)
    3934:	00078513          	mv	a0,a5
    3938:	f09ff0ef          	jal	3840 <write_slot>
    393c:	fdc42783          	lw	a5,-36(s0)
    3940:	fef42223          	sw	a5,-28(s0)
    3944:	fe042783          	lw	a5,-32(s0)
    3948:	fef42423          	sw	a5,-24(s0)
    394c:	00000713          	li	a4,0
    3950:	fe442703          	lw	a4,-28(s0)
    3954:	00000793          	li	a5,0
    3958:	fe842783          	lw	a5,-24(s0)
    395c:	00070913          	mv	s2,a4
    3960:	00078993          	mv	s3,a5
    3964:	00090713          	mv	a4,s2
    3968:	00098793          	mv	a5,s3
    396c:	00070513          	mv	a0,a4
    3970:	00078593          	mv	a1,a5
    3974:	02c12083          	lw	ra,44(sp)
    3978:	02812403          	lw	s0,40(sp)
    397c:	02412903          	lw	s2,36(sp)
    3980:	02012983          	lw	s3,32(sp)
    3984:	03010113          	addi	sp,sp,48
    3988:	00008067          	ret

0000398c <create_irq_cnode>:
    398c:	fe010113          	addi	sp,sp,-32
    3990:	00112e23          	sw	ra,28(sp)
    3994:	00812c23          	sw	s0,24(sp)
    3998:	02010413          	addi	s0,sp,32
    399c:	00c00513          	li	a0,12
    39a0:	a99ff0ef          	jal	3438 <alloc_region>
    39a4:	fea42623          	sw	a0,-20(s0)
    39a8:	fec42783          	lw	a5,-20(s0)
    39ac:	00079c63          	bnez	a5,39c4 <create_irq_cnode+0x38>
    39b0:	000287b7          	lui	a5,0x28
    39b4:	1e878513          	addi	a0,a5,488 # 281e8 <syscallMessage+0x170>
    39b8:	4cd180ef          	jal	1c684 <puts>
    39bc:	00000793          	li	a5,0
    39c0:	0240006f          	j	39e4 <create_irq_cnode+0x58>
    39c4:	fec42783          	lw	a5,-20(s0)
    39c8:	000015b7          	lui	a1,0x1
    39cc:	00078513          	mv	a0,a5
    39d0:	739220ef          	jal	26908 <memzero>
    39d4:	fec42703          	lw	a4,-20(s0)
    39d8:	000317b7          	lui	a5,0x31
    39dc:	80e7a423          	sw	a4,-2040(a5) # 30808 <intStateIRQNode>
    39e0:	00100793          	li	a5,1
    39e4:	00078513          	mv	a0,a5
    39e8:	01c12083          	lw	ra,28(sp)
    39ec:	01812403          	lw	s0,24(sp)
    39f0:	02010113          	addi	sp,sp,32
    39f4:	00008067          	ret

000039f8 <create_domain_cap>:
    39f8:	fd010113          	addi	sp,sp,-48
    39fc:	02112623          	sw	ra,44(sp)
    3a00:	02812423          	sw	s0,40(sp)
    3a04:	03010413          	addi	s0,sp,48
    3a08:	fca42c23          	sw	a0,-40(s0)
    3a0c:	fcb42e23          	sw	a1,-36(s0)
    3a10:	00100793          	li	a5,1
    3a14:	00079e63          	bnez	a5,3a30 <create_domain_cap+0x38>
    3a18:	000287b7          	lui	a5,0x28
    3a1c:	21878513          	addi	a0,a5,536 # 28218 <syscallMessage+0x1a0>
    3a20:	605120ef          	jal	16824 <cputstring>
    3a24:	00300513          	li	a0,3
    3a28:	64d120ef          	jal	16874 <terminate>
    3a2c:	0080006f          	j	3a34 <create_domain_cap+0x3c>
    3a30:	00000013          	nop
    3a34:	fe042623          	sw	zero,-20(s0)
    3a38:	06c0006f          	j	3aa4 <create_domain_cap+0xac>
    3a3c:	0002b7b7          	lui	a5,0x2b
    3a40:	fec42703          	lw	a4,-20(s0)
    3a44:	00371713          	slli	a4,a4,0x3
    3a48:	46878793          	addi	a5,a5,1128 # 2b468 <ksDomSchedule>
    3a4c:	00f707b3          	add	a5,a4,a5
    3a50:	0007a783          	lw	a5,0(a5)
    3a54:	00078e63          	beqz	a5,3a70 <create_domain_cap+0x78>
    3a58:	000287b7          	lui	a5,0x28
    3a5c:	24478513          	addi	a0,a5,580 # 28244 <syscallMessage+0x1cc>
    3a60:	5c5120ef          	jal	16824 <cputstring>
    3a64:	00300513          	li	a0,3
    3a68:	60d120ef          	jal	16874 <terminate>
    3a6c:	0080006f          	j	3a74 <create_domain_cap+0x7c>
    3a70:	00000013          	nop
    3a74:	00100793          	li	a5,1
    3a78:	00079e63          	bnez	a5,3a94 <create_domain_cap+0x9c>
    3a7c:	000287b7          	lui	a5,0x28
    3a80:	27478513          	addi	a0,a5,628 # 28274 <syscallMessage+0x1fc>
    3a84:	5a1120ef          	jal	16824 <cputstring>
    3a88:	00300513          	li	a0,3
    3a8c:	5e9120ef          	jal	16874 <terminate>
    3a90:	0080006f          	j	3a98 <create_domain_cap+0xa0>
    3a94:	00000013          	nop
    3a98:	fec42783          	lw	a5,-20(s0)
    3a9c:	00178793          	addi	a5,a5,1
    3aa0:	fef42623          	sw	a5,-20(s0)
    3aa4:	00100793          	li	a5,1
    3aa8:	fec42703          	lw	a4,-20(s0)
    3aac:	f8f768e3          	bltu	a4,a5,3a3c <create_domain_cap+0x44>
    3ab0:	7d50f0ef          	jal	13a84 <cap_domain_cap_new>
    3ab4:	00050713          	mv	a4,a0
    3ab8:	00058793          	mv	a5,a1
    3abc:	fee42223          	sw	a4,-28(s0)
    3ac0:	fef42423          	sw	a5,-24(s0)
    3ac4:	fd842503          	lw	a0,-40(s0)
    3ac8:	fdc42583          	lw	a1,-36(s0)
    3acc:	3a5100ef          	jal	14670 <cap_get_capPtr>
    3ad0:	00050793          	mv	a5,a0
    3ad4:	0b078793          	addi	a5,a5,176
    3ad8:	fe442583          	lw	a1,-28(s0)
    3adc:	fe842603          	lw	a2,-24(s0)
    3ae0:	00078513          	mv	a0,a5
    3ae4:	d5dff0ef          	jal	3840 <write_slot>
    3ae8:	00000013          	nop
    3aec:	02c12083          	lw	ra,44(sp)
    3af0:	02812403          	lw	s0,40(sp)
    3af4:	03010113          	addi	sp,sp,48
    3af8:	00008067          	ret

00003afc <create_ipcbuf_frame>:
    3afc:	fb010113          	addi	sp,sp,-80
    3b00:	04112623          	sw	ra,76(sp)
    3b04:	04812423          	sw	s0,72(sp)
    3b08:	05212223          	sw	s2,68(sp)
    3b0c:	05312023          	sw	s3,64(sp)
    3b10:	05010413          	addi	s0,sp,80
    3b14:	fca42423          	sw	a0,-56(s0)
    3b18:	fcb42623          	sw	a1,-52(s0)
    3b1c:	fcc42023          	sw	a2,-64(s0)
    3b20:	fcd42223          	sw	a3,-60(s0)
    3b24:	fae42e23          	sw	a4,-68(s0)
    3b28:	00c00513          	li	a0,12
    3b2c:	90dff0ef          	jal	3438 <alloc_region>
    3b30:	fea42623          	sw	a0,-20(s0)
    3b34:	fec42783          	lw	a5,-20(s0)
    3b38:	02079463          	bnez	a5,3b60 <create_ipcbuf_frame+0x64>
    3b3c:	000287b7          	lui	a5,0x28
    3b40:	2a478513          	addi	a0,a5,676 # 282a4 <syscallMessage+0x22c>
    3b44:	341180ef          	jal	1c684 <puts>
    3b48:	6e90d0ef          	jal	11a30 <cap_null_cap_new>
    3b4c:	00050713          	mv	a4,a0
    3b50:	00058793          	mv	a5,a1
    3b54:	fee42223          	sw	a4,-28(s0)
    3b58:	fef42423          	sw	a5,-24(s0)
    3b5c:	0740006f          	j	3bd0 <create_ipcbuf_frame+0xd4>
    3b60:	fec42783          	lw	a5,-20(s0)
    3b64:	00c00593          	li	a1,12
    3b68:	00078513          	mv	a0,a5
    3b6c:	0b8110ef          	jal	14c24 <clearMemory>
    3b70:	00000793          	li	a5,0
    3b74:	00000713          	li	a4,0
    3b78:	fbc42683          	lw	a3,-68(s0)
    3b7c:	fec42603          	lw	a2,-20(s0)
    3b80:	fc042503          	lw	a0,-64(s0)
    3b84:	fc442583          	lw	a1,-60(s0)
    3b88:	d54ff0ef          	jal	30dc <create_mapped_it_frame_cap>
    3b8c:	00050713          	mv	a4,a0
    3b90:	00058793          	mv	a5,a1
    3b94:	fce42e23          	sw	a4,-36(s0)
    3b98:	fef42023          	sw	a5,-32(s0)
    3b9c:	fc842503          	lw	a0,-56(s0)
    3ba0:	fcc42583          	lw	a1,-52(s0)
    3ba4:	2cd100ef          	jal	14670 <cap_get_capPtr>
    3ba8:	00050793          	mv	a5,a0
    3bac:	09078793          	addi	a5,a5,144
    3bb0:	fdc42583          	lw	a1,-36(s0)
    3bb4:	fe042603          	lw	a2,-32(s0)
    3bb8:	00078513          	mv	a0,a5
    3bbc:	c85ff0ef          	jal	3840 <write_slot>
    3bc0:	fdc42783          	lw	a5,-36(s0)
    3bc4:	fef42223          	sw	a5,-28(s0)
    3bc8:	fe042783          	lw	a5,-32(s0)
    3bcc:	fef42423          	sw	a5,-24(s0)
    3bd0:	00000713          	li	a4,0
    3bd4:	fe442703          	lw	a4,-28(s0)
    3bd8:	00000793          	li	a5,0
    3bdc:	fe842783          	lw	a5,-24(s0)
    3be0:	00070913          	mv	s2,a4
    3be4:	00078993          	mv	s3,a5
    3be8:	00090713          	mv	a4,s2
    3bec:	00098793          	mv	a5,s3
    3bf0:	00070513          	mv	a0,a4
    3bf4:	00078593          	mv	a1,a5
    3bf8:	04c12083          	lw	ra,76(sp)
    3bfc:	04812403          	lw	s0,72(sp)
    3c00:	04412903          	lw	s2,68(sp)
    3c04:	04012983          	lw	s3,64(sp)
    3c08:	05010113          	addi	sp,sp,80
    3c0c:	00008067          	ret

00003c10 <create_bi_frame_cap>:
    3c10:	fc010113          	addi	sp,sp,-64
    3c14:	02112e23          	sw	ra,60(sp)
    3c18:	02812c23          	sw	s0,56(sp)
    3c1c:	04010413          	addi	s0,sp,64
    3c20:	fca42c23          	sw	a0,-40(s0)
    3c24:	fcb42e23          	sw	a1,-36(s0)
    3c28:	fcc42823          	sw	a2,-48(s0)
    3c2c:	fcd42a23          	sw	a3,-44(s0)
    3c30:	fce42623          	sw	a4,-52(s0)
    3c34:	fcf42423          	sw	a5,-56(s0)
    3c38:	00000793          	li	a5,0
    3c3c:	00000713          	li	a4,0
    3c40:	fc842683          	lw	a3,-56(s0)
    3c44:	fcc42603          	lw	a2,-52(s0)
    3c48:	fd042503          	lw	a0,-48(s0)
    3c4c:	fd442583          	lw	a1,-44(s0)
    3c50:	c8cff0ef          	jal	30dc <create_mapped_it_frame_cap>
    3c54:	00050713          	mv	a4,a0
    3c58:	00058793          	mv	a5,a1
    3c5c:	fee42423          	sw	a4,-24(s0)
    3c60:	fef42623          	sw	a5,-20(s0)
    3c64:	fd842503          	lw	a0,-40(s0)
    3c68:	fdc42583          	lw	a1,-36(s0)
    3c6c:	205100ef          	jal	14670 <cap_get_capPtr>
    3c70:	00050793          	mv	a5,a0
    3c74:	07078793          	addi	a5,a5,112
    3c78:	fe842583          	lw	a1,-24(s0)
    3c7c:	fec42603          	lw	a2,-20(s0)
    3c80:	00078513          	mv	a0,a5
    3c84:	bbdff0ef          	jal	3840 <write_slot>
    3c88:	00000013          	nop
    3c8c:	03c12083          	lw	ra,60(sp)
    3c90:	03812403          	lw	s0,56(sp)
    3c94:	04010113          	addi	sp,sp,64
    3c98:	00008067          	ret

00003c9c <allocate_bi_frame>:
    3c9c:	fd010113          	addi	sp,sp,-48
    3ca0:	02112623          	sw	ra,44(sp)
    3ca4:	02812423          	sw	s0,40(sp)
    3ca8:	03010413          	addi	s0,sp,48
    3cac:	fca42e23          	sw	a0,-36(s0)
    3cb0:	fcb42c23          	sw	a1,-40(s0)
    3cb4:	fcc42a23          	sw	a2,-44(s0)
    3cb8:	00c00513          	li	a0,12
    3cbc:	f7cff0ef          	jal	3438 <alloc_region>
    3cc0:	fea42623          	sw	a0,-20(s0)
    3cc4:	fec42783          	lw	a5,-20(s0)
    3cc8:	00079c63          	bnez	a5,3ce0 <allocate_bi_frame+0x44>
    3ccc:	000287b7          	lui	a5,0x28
    3cd0:	2dc78513          	addi	a0,a5,732 # 282dc <syscallMessage+0x264>
    3cd4:	1b1180ef          	jal	1c684 <puts>
    3cd8:	00000793          	li	a5,0
    3cdc:	0a40006f          	j	3d80 <allocate_bi_frame+0xe4>
    3ce0:	fec42783          	lw	a5,-20(s0)
    3ce4:	00c00593          	li	a1,12
    3ce8:	00078513          	mv	a0,a5
    3cec:	739100ef          	jal	14c24 <clearMemory>
    3cf0:	fec42703          	lw	a4,-20(s0)
    3cf4:	000057b7          	lui	a5,0x5
    3cf8:	9e478793          	addi	a5,a5,-1564 # 49e4 <ndks_boot>
    3cfc:	00e7a823          	sw	a4,16(a5)
    3d00:	000057b7          	lui	a5,0x5
    3d04:	9e478793          	addi	a5,a5,-1564 # 49e4 <ndks_boot>
    3d08:	00c00713          	li	a4,12
    3d0c:	00e7aa23          	sw	a4,20(a5)
    3d10:	fec42783          	lw	a5,-20(s0)
    3d14:	fdc42703          	lw	a4,-36(s0)
    3d18:	00e7a023          	sw	a4,0(a5)
    3d1c:	fec42783          	lw	a5,-20(s0)
    3d20:	fd842703          	lw	a4,-40(s0)
    3d24:	00e7a223          	sw	a4,4(a5)
    3d28:	fec42783          	lw	a5,-20(s0)
    3d2c:	0007a423          	sw	zero,8(a5)
    3d30:	fec42783          	lw	a5,-20(s0)
    3d34:	fd442703          	lw	a4,-44(s0)
    3d38:	00e7a623          	sw	a4,12(a5)
    3d3c:	fec42703          	lw	a4,-20(s0)
    3d40:	000017b7          	lui	a5,0x1
    3d44:	00f707b3          	add	a5,a4,a5
    3d48:	01000713          	li	a4,16
    3d4c:	fee78423          	sb	a4,-24(a5) # fe8 <KERNEL_BASE+0xee8>
    3d50:	fec42683          	lw	a3,-20(s0)
    3d54:	000347b7          	lui	a5,0x34
    3d58:	00c7a703          	lw	a4,12(a5) # 3400c <ksDomScheduleIdx>
    3d5c:	0002b7b7          	lui	a5,0x2b
    3d60:	00371713          	slli	a4,a4,0x3
    3d64:	46878793          	addi	a5,a5,1128 # 2b468 <ksDomSchedule>
    3d68:	00f707b3          	add	a5,a4,a5
    3d6c:	0007a703          	lw	a4,0(a5)
    3d70:	000017b7          	lui	a5,0x1
    3d74:	00f687b3          	add	a5,a3,a5
    3d78:	fee7a623          	sw	a4,-20(a5) # fec <KERNEL_BASE+0xeec>
    3d7c:	fec42783          	lw	a5,-20(s0)
    3d80:	00078513          	mv	a0,a5
    3d84:	02c12083          	lw	ra,44(sp)
    3d88:	02812403          	lw	s0,40(sp)
    3d8c:	03010113          	addi	sp,sp,48
    3d90:	00008067          	ret

00003d94 <provide_cap>:
    3d94:	fe010113          	addi	sp,sp,-32
    3d98:	00112e23          	sw	ra,28(sp)
    3d9c:	00812c23          	sw	s0,24(sp)
    3da0:	02010413          	addi	s0,sp,32
    3da4:	fea42423          	sw	a0,-24(s0)
    3da8:	feb42623          	sw	a1,-20(s0)
    3dac:	fec42023          	sw	a2,-32(s0)
    3db0:	fed42223          	sw	a3,-28(s0)
    3db4:	000057b7          	lui	a5,0x5
    3db8:	9e478793          	addi	a5,a5,-1564 # 49e4 <ndks_boot>
    3dbc:	0147a703          	lw	a4,20(a5)
    3dc0:	000057b7          	lui	a5,0x5
    3dc4:	9e478793          	addi	a5,a5,-1564 # 49e4 <ndks_boot>
    3dc8:	0187a783          	lw	a5,24(a5)
    3dcc:	00f76c63          	bltu	a4,a5,3de4 <provide_cap+0x50>
    3dd0:	000287b7          	lui	a5,0x28
    3dd4:	31478513          	addi	a0,a5,788 # 28314 <syscallMessage+0x29c>
    3dd8:	0ad180ef          	jal	1c684 <puts>
    3ddc:	00000793          	li	a5,0
    3de0:	0580006f          	j	3e38 <provide_cap+0xa4>
    3de4:	fe842503          	lw	a0,-24(s0)
    3de8:	fec42583          	lw	a1,-20(s0)
    3dec:	085100ef          	jal	14670 <cap_get_capPtr>
    3df0:	00050713          	mv	a4,a0
    3df4:	000057b7          	lui	a5,0x5
    3df8:	9e478793          	addi	a5,a5,-1564 # 49e4 <ndks_boot>
    3dfc:	0147a783          	lw	a5,20(a5)
    3e00:	00479793          	slli	a5,a5,0x4
    3e04:	00f707b3          	add	a5,a4,a5
    3e08:	fe042583          	lw	a1,-32(s0)
    3e0c:	fe442603          	lw	a2,-28(s0)
    3e10:	00078513          	mv	a0,a5
    3e14:	a2dff0ef          	jal	3840 <write_slot>
    3e18:	000057b7          	lui	a5,0x5
    3e1c:	9e478793          	addi	a5,a5,-1564 # 49e4 <ndks_boot>
    3e20:	0147a783          	lw	a5,20(a5)
    3e24:	00178713          	addi	a4,a5,1
    3e28:	000057b7          	lui	a5,0x5
    3e2c:	9e478793          	addi	a5,a5,-1564 # 49e4 <ndks_boot>
    3e30:	00e7aa23          	sw	a4,20(a5)
    3e34:	00100793          	li	a5,1
    3e38:	00078513          	mv	a0,a5
    3e3c:	01c12083          	lw	ra,28(sp)
    3e40:	01812403          	lw	s0,24(sp)
    3e44:	02010113          	addi	sp,sp,32
    3e48:	00008067          	ret

00003e4c <create_frames_of_region>:
    3e4c:	fb010113          	addi	sp,sp,-80
    3e50:	04112623          	sw	ra,76(sp)
    3e54:	04812423          	sw	s0,72(sp)
    3e58:	05010413          	addi	s0,sp,80
    3e5c:	fca42623          	sw	a0,-52(s0)
    3e60:	fcb42223          	sw	a1,-60(s0)
    3e64:	fcc42423          	sw	a2,-56(s0)
    3e68:	fad42e23          	sw	a3,-68(s0)
    3e6c:	fce42023          	sw	a4,-64(s0)
    3e70:	faf42a23          	sw	a5,-76(s0)
    3e74:	fb042c23          	sw	a6,-72(s0)
    3e78:	fb142823          	sw	a7,-80(s0)
    3e7c:	000057b7          	lui	a5,0x5
    3e80:	9e478793          	addi	a5,a5,-1564 # 49e4 <ndks_boot>
    3e84:	0147a783          	lw	a5,20(a5)
    3e88:	fef42423          	sw	a5,-24(s0)
    3e8c:	fb442783          	lw	a5,-76(s0)
    3e90:	fef42623          	sw	a5,-20(s0)
    3e94:	0b00006f          	j	3f44 <create_frames_of_region+0xf8>
    3e98:	fb042783          	lw	a5,-80(s0)
    3e9c:	04078263          	beqz	a5,3ee0 <create_frames_of_region+0x94>
    3ea0:	00042783          	lw	a5,0(s0)
    3ea4:	fec42703          	lw	a4,-20(s0)
    3ea8:	40f70733          	sub	a4,a4,a5
    3eac:	900007b7          	lui	a5,0x90000
    3eb0:	00f706b3          	add	a3,a4,a5
    3eb4:	00000793          	li	a5,0
    3eb8:	00000713          	li	a4,0
    3ebc:	fec42603          	lw	a2,-20(s0)
    3ec0:	fbc42503          	lw	a0,-68(s0)
    3ec4:	fc042583          	lw	a1,-64(s0)
    3ec8:	a14ff0ef          	jal	30dc <create_mapped_it_frame_cap>
    3ecc:	00050713          	mv	a4,a0
    3ed0:	00058793          	mv	a5,a1
    3ed4:	fce42e23          	sw	a4,-36(s0)
    3ed8:	fef42023          	sw	a5,-32(s0)
    3edc:	0200006f          	j	3efc <create_frames_of_region+0xb0>
    3ee0:	00000593          	li	a1,0
    3ee4:	fec42503          	lw	a0,-20(s0)
    3ee8:	9c8ff0ef          	jal	30b0 <create_unmapped_it_frame_cap>
    3eec:	00050713          	mv	a4,a0
    3ef0:	00058793          	mv	a5,a1
    3ef4:	fce42e23          	sw	a4,-36(s0)
    3ef8:	fef42023          	sw	a5,-32(s0)
    3efc:	fdc42603          	lw	a2,-36(s0)
    3f00:	fe042683          	lw	a3,-32(s0)
    3f04:	fc442503          	lw	a0,-60(s0)
    3f08:	fc842583          	lw	a1,-56(s0)
    3f0c:	e89ff0ef          	jal	3d94 <provide_cap>
    3f10:	00050793          	mv	a5,a0
    3f14:	02079063          	bnez	a5,3f34 <create_frames_of_region+0xe8>
    3f18:	fcc42783          	lw	a5,-52(s0)
    3f1c:	0007a023          	sw	zero,0(a5) # 90000000 <ki_end+0x8ffcb000>
    3f20:	fcc42783          	lw	a5,-52(s0)
    3f24:	0007a223          	sw	zero,4(a5)
    3f28:	fcc42783          	lw	a5,-52(s0)
    3f2c:	0007a423          	sw	zero,8(a5)
    3f30:	0540006f          	j	3f84 <create_frames_of_region+0x138>
    3f34:	fec42703          	lw	a4,-20(s0)
    3f38:	000017b7          	lui	a5,0x1
    3f3c:	00f707b3          	add	a5,a4,a5
    3f40:	fef42623          	sw	a5,-20(s0)
    3f44:	fb842703          	lw	a4,-72(s0)
    3f48:	fec42783          	lw	a5,-20(s0)
    3f4c:	f4e7e6e3          	bltu	a5,a4,3e98 <create_frames_of_region+0x4c>
    3f50:	000057b7          	lui	a5,0x5
    3f54:	9e478793          	addi	a5,a5,-1564 # 49e4 <ndks_boot>
    3f58:	0147a783          	lw	a5,20(a5)
    3f5c:	fef42223          	sw	a5,-28(s0)
    3f60:	fcc42783          	lw	a5,-52(s0)
    3f64:	fe842703          	lw	a4,-24(s0)
    3f68:	00e7a023          	sw	a4,0(a5)
    3f6c:	fcc42783          	lw	a5,-52(s0)
    3f70:	fe442703          	lw	a4,-28(s0)
    3f74:	00e7a223          	sw	a4,4(a5)
    3f78:	fcc42783          	lw	a5,-52(s0)
    3f7c:	00100713          	li	a4,1
    3f80:	00e7a423          	sw	a4,8(a5)
    3f84:	fcc42503          	lw	a0,-52(s0)
    3f88:	04c12083          	lw	ra,76(sp)
    3f8c:	04812403          	lw	s0,72(sp)
    3f90:	05010113          	addi	sp,sp,80
    3f94:	00008067          	ret

00003f98 <create_idle_thread>:
    3f98:	fe010113          	addi	sp,sp,-32
    3f9c:	00112e23          	sw	ra,28(sp)
    3fa0:	00812c23          	sw	s0,24(sp)
    3fa4:	02010413          	addi	s0,sp,32
    3fa8:	00900513          	li	a0,9
    3fac:	c8cff0ef          	jal	3438 <alloc_region>
    3fb0:	fea42623          	sw	a0,-20(s0)
    3fb4:	fec42783          	lw	a5,-20(s0)
    3fb8:	00079c63          	bnez	a5,3fd0 <create_idle_thread+0x38>
    3fbc:	000287b7          	lui	a5,0x28
    3fc0:	34078513          	addi	a0,a5,832 # 28340 <syscallMessage+0x2c8>
    3fc4:	6c0180ef          	jal	1c684 <puts>
    3fc8:	00000793          	li	a5,0
    3fcc:	03c0006f          	j	4008 <create_idle_thread+0x70>
    3fd0:	fec42783          	lw	a5,-20(s0)
    3fd4:	20000593          	li	a1,512
    3fd8:	00078513          	mv	a0,a5
    3fdc:	12d220ef          	jal	26908 <memzero>
    3fe0:	fec42783          	lw	a5,-20(s0)
    3fe4:	10078793          	addi	a5,a5,256
    3fe8:	00078713          	mv	a4,a5
    3fec:	0002e7b7          	lui	a5,0x2e
    3ff0:	00e7a623          	sw	a4,12(a5) # 2e00c <ksIdleThread>
    3ff4:	0002e7b7          	lui	a5,0x2e
    3ff8:	00c7a783          	lw	a5,12(a5) # 2e00c <ksIdleThread>
    3ffc:	00078513          	mv	a0,a5
    4000:	6e4000ef          	jal	46e4 <configureIdleThread>
    4004:	00100793          	li	a5,1
    4008:	00078513          	mv	a0,a5
    400c:	01c12083          	lw	ra,28(sp)
    4010:	01812403          	lw	s0,24(sp)
    4014:	02010113          	addi	sp,sp,32
    4018:	00008067          	ret

0000401c <create_initial_thread>:
    401c:	fa010113          	addi	sp,sp,-96
    4020:	04112623          	sw	ra,76(sp)
    4024:	04812423          	sw	s0,72(sp)
    4028:	05010413          	addi	s0,sp,80
    402c:	fca42423          	sw	a0,-56(s0)
    4030:	fcb42623          	sw	a1,-52(s0)
    4034:	fcc42023          	sw	a2,-64(s0)
    4038:	fcd42223          	sw	a3,-60(s0)
    403c:	fae42e23          	sw	a4,-68(s0)
    4040:	faf42c23          	sw	a5,-72(s0)
    4044:	fb042a23          	sw	a6,-76(s0)
    4048:	01142623          	sw	a7,12(s0)
    404c:	00900513          	li	a0,9
    4050:	be8ff0ef          	jal	3438 <alloc_region>
    4054:	fea42623          	sw	a0,-20(s0)
    4058:	fec42783          	lw	a5,-20(s0)
    405c:	00079c63          	bnez	a5,4074 <create_initial_thread+0x58>
    4060:	000287b7          	lui	a5,0x28
    4064:	37c78513          	addi	a0,a5,892 # 2837c <syscallMessage+0x304>
    4068:	61c180ef          	jal	1c684 <puts>
    406c:	00000793          	li	a5,0
    4070:	21c0006f          	j	428c <create_initial_thread+0x270>
    4074:	fec42783          	lw	a5,-20(s0)
    4078:	20000593          	li	a1,512
    407c:	00078513          	mv	a0,a5
    4080:	089220ef          	jal	26908 <memzero>
    4084:	fec42783          	lw	a5,-20(s0)
    4088:	10078793          	addi	a5,a5,256
    408c:	fef42423          	sw	a5,-24(s0)
    4090:	fe842783          	lw	a5,-24(s0)
    4094:	00100713          	li	a4,1
    4098:	0ae7a423          	sw	a4,168(a5)
    409c:	fe842783          	lw	a5,-24(s0)
    40a0:	00078513          	mv	a0,a5
    40a4:	5f50f0ef          	jal	13e98 <Arch_initContext>
    40a8:	fc842503          	lw	a0,-56(s0)
    40ac:	fcc42583          	lw	a1,-52(s0)
    40b0:	5c0100ef          	jal	14670 <cap_get_capPtr>
    40b4:	00050793          	mv	a5,a0
    40b8:	09078713          	addi	a4,a5,144
    40bc:	fd440793          	addi	a5,s0,-44
    40c0:	00c42603          	lw	a2,12(s0)
    40c4:	01042683          	lw	a3,16(s0)
    40c8:	00070593          	mv	a1,a4
    40cc:	00078513          	mv	a0,a5
    40d0:	6101c0ef          	jal	206e0 <deriveCap>
    40d4:	fd442783          	lw	a5,-44(s0)
    40d8:	00078c63          	beqz	a5,40f0 <create_initial_thread+0xd4>
    40dc:	000287b7          	lui	a5,0x28
    40e0:	3bc78513          	addi	a0,a5,956 # 283bc <syscallMessage+0x344>
    40e4:	5a0180ef          	jal	1c684 <puts>
    40e8:	00000793          	li	a5,0
    40ec:	1a00006f          	j	428c <create_initial_thread+0x270>
    40f0:	fc842503          	lw	a0,-56(s0)
    40f4:	fcc42583          	lw	a1,-52(s0)
    40f8:	578100ef          	jal	14670 <cap_get_capPtr>
    40fc:	00050793          	mv	a5,a0
    4100:	02078793          	addi	a5,a5,32
    4104:	fec42703          	lw	a4,-20(s0)
    4108:	00070693          	mv	a3,a4
    410c:	00078613          	mv	a2,a5
    4110:	fc842503          	lw	a0,-56(s0)
    4114:	fcc42583          	lw	a1,-52(s0)
    4118:	0681a0ef          	jal	1e180 <cteInsert>
    411c:	fc842503          	lw	a0,-56(s0)
    4120:	fcc42583          	lw	a1,-52(s0)
    4124:	54c100ef          	jal	14670 <cap_get_capPtr>
    4128:	00050793          	mv	a5,a0
    412c:	03078713          	addi	a4,a5,48
    4130:	fec42783          	lw	a5,-20(s0)
    4134:	01078793          	addi	a5,a5,16
    4138:	00078693          	mv	a3,a5
    413c:	00070613          	mv	a2,a4
    4140:	fc042503          	lw	a0,-64(s0)
    4144:	fc442583          	lw	a1,-60(s0)
    4148:	0381a0ef          	jal	1e180 <cteInsert>
    414c:	fc842503          	lw	a0,-56(s0)
    4150:	fcc42583          	lw	a1,-52(s0)
    4154:	51c100ef          	jal	14670 <cap_get_capPtr>
    4158:	00050793          	mv	a5,a0
    415c:	09078713          	addi	a4,a5,144
    4160:	fec42783          	lw	a5,-20(s0)
    4164:	04078793          	addi	a5,a5,64
    4168:	00078693          	mv	a3,a5
    416c:	00070613          	mv	a2,a4
    4170:	fd842503          	lw	a0,-40(s0)
    4174:	fdc42583          	lw	a1,-36(s0)
    4178:	0081a0ef          	jal	1e180 <cteInsert>
    417c:	fe842783          	lw	a5,-24(s0)
    4180:	fb442703          	lw	a4,-76(s0)
    4184:	0ae7a823          	sw	a4,176(a5)
    4188:	fb842603          	lw	a2,-72(s0)
    418c:	01200593          	li	a1,18
    4190:	fe842503          	lw	a0,-24(s0)
    4194:	2d5100ef          	jal	14c68 <setRegister>
    4198:	fbc42583          	lw	a1,-68(s0)
    419c:	fe842503          	lw	a0,-24(s0)
    41a0:	410130ef          	jal	175b0 <setNextPC>
    41a4:	fe842783          	lw	a5,-24(s0)
    41a8:	0ff00713          	li	a4,255
    41ac:	0ae7a223          	sw	a4,164(a5)
    41b0:	fe842503          	lw	a0,-24(s0)
    41b4:	3391a0ef          	jal	1ecec <setupReplyMaster>
    41b8:	00100593          	li	a1,1
    41bc:	fe842503          	lw	a0,-24(s0)
    41c0:	441170ef          	jal	1be00 <setThreadState>
    41c4:	0002e7b7          	lui	a5,0x2e
    41c8:	0207a423          	sw	zero,40(a5) # 2e028 <ksSchedulerAction>
    41cc:	0002e7b7          	lui	a5,0x2e
    41d0:	00c7a703          	lw	a4,12(a5) # 2e00c <ksIdleThread>
    41d4:	000347b7          	lui	a5,0x34
    41d8:	00e7a423          	sw	a4,8(a5) # 34008 <ksCurThread>
    41dc:	000347b7          	lui	a5,0x34
    41e0:	00c7a703          	lw	a4,12(a5) # 3400c <ksDomScheduleIdx>
    41e4:	0002b7b7          	lui	a5,0x2b
    41e8:	00371713          	slli	a4,a4,0x3
    41ec:	46878793          	addi	a5,a5,1128 # 2b468 <ksDomSchedule>
    41f0:	00f707b3          	add	a5,a4,a5
    41f4:	0007a703          	lw	a4,0(a5)
    41f8:	000317b7          	lui	a5,0x31
    41fc:	80e7a623          	sw	a4,-2036(a5) # 3080c <ksCurDomain>
    4200:	00100713          	li	a4,1
    4204:	000317b7          	lui	a5,0x31
    4208:	80e7a223          	sw	a4,-2044(a5) # 30804 <ksDomainTime>
    420c:	000317b7          	lui	a5,0x31
    4210:	80c7a783          	lw	a5,-2036(a5) # 3080c <ksCurDomain>
    4214:	00079863          	bnez	a5,4224 <create_initial_thread+0x208>
    4218:	000317b7          	lui	a5,0x31
    421c:	8047a783          	lw	a5,-2044(a5) # 30804 <ksDomainTime>
    4220:	00079e63          	bnez	a5,423c <create_initial_thread+0x220>
    4224:	000287b7          	lui	a5,0x28
    4228:	3e078513          	addi	a0,a5,992 # 283e0 <syscallMessage+0x368>
    422c:	5f8120ef          	jal	16824 <cputstring>
    4230:	00300513          	li	a0,3
    4234:	640120ef          	jal	16874 <terminate>
    4238:	0080006f          	j	4240 <create_initial_thread+0x224>
    423c:	00000013          	nop
    4240:	fe842503          	lw	a0,-24(s0)
    4244:	155170ef          	jal	1bb98 <switchToThread>
    4248:	fe842783          	lw	a5,-24(s0)
    424c:	00078513          	mv	a0,a5
    4250:	01c0f0ef          	jal	1326c <cap_thread_cap_new>
    4254:	00050713          	mv	a4,a0
    4258:	00058793          	mv	a5,a1
    425c:	fee42023          	sw	a4,-32(s0)
    4260:	fef42223          	sw	a5,-28(s0)
    4264:	fc842503          	lw	a0,-56(s0)
    4268:	fcc42583          	lw	a1,-52(s0)
    426c:	404100ef          	jal	14670 <cap_get_capPtr>
    4270:	00050793          	mv	a5,a0
    4274:	01078793          	addi	a5,a5,16
    4278:	fe042583          	lw	a1,-32(s0)
    427c:	fe442603          	lw	a2,-28(s0)
    4280:	00078513          	mv	a0,a5
    4284:	dbcff0ef          	jal	3840 <write_slot>
    4288:	00100793          	li	a5,1
    428c:	00078513          	mv	a0,a5
    4290:	04c12083          	lw	ra,76(sp)
    4294:	04812403          	lw	s0,72(sp)
    4298:	06010113          	addi	sp,sp,96
    429c:	00008067          	ret

000042a0 <provide_untyped_cap>:
    42a0:	fc010113          	addi	sp,sp,-64
    42a4:	02112e23          	sw	ra,60(sp)
    42a8:	02812c23          	sw	s0,56(sp)
    42ac:	02912a23          	sw	s1,52(sp)
    42b0:	04010413          	addi	s0,sp,64
    42b4:	fca42c23          	sw	a0,-40(s0)
    42b8:	fcb42e23          	sw	a1,-36(s0)
    42bc:	fcc42a23          	sw	a2,-44(s0)
    42c0:	fcd42823          	sw	a3,-48(s0)
    42c4:	fce42623          	sw	a4,-52(s0)
    42c8:	fcf42423          	sw	a5,-56(s0)
    42cc:	000057b7          	lui	a5,0x5
    42d0:	9e478793          	addi	a5,a5,-1564 # 49e4 <ndks_boot>
    42d4:	0147a703          	lw	a4,20(a5)
    42d8:	fc842783          	lw	a5,-56(s0)
    42dc:	40f707b3          	sub	a5,a4,a5
    42e0:	fef42423          	sw	a5,-24(s0)
    42e4:	fe842703          	lw	a4,-24(s0)
    42e8:	31f00793          	li	a5,799
    42ec:	08e7ec63          	bltu	a5,a4,4384 <provide_untyped_cap+0xe4>
    42f0:	000057b7          	lui	a5,0x5
    42f4:	9e478793          	addi	a5,a5,-1564 # 49e4 <ndks_boot>
    42f8:	0107a483          	lw	s1,16(a5)
    42fc:	fd042783          	lw	a5,-48(s0)
    4300:	00078513          	mv	a0,a5
    4304:	205100ef          	jal	14d08 <pptr_to_paddr>
    4308:	00050713          	mv	a4,a0
    430c:	fe842783          	lw	a5,-24(s0)
    4310:	01078793          	addi	a5,a5,16
    4314:	00279793          	slli	a5,a5,0x2
    4318:	00f487b3          	add	a5,s1,a5
    431c:	00e7a423          	sw	a4,8(a5)
    4320:	000057b7          	lui	a5,0x5
    4324:	9e478793          	addi	a5,a5,-1564 # 49e4 <ndks_boot>
    4328:	0107a683          	lw	a3,16(a5)
    432c:	fcc42783          	lw	a5,-52(s0)
    4330:	0ff7f713          	andi	a4,a5,255
    4334:	fe842783          	lw	a5,-24(s0)
    4338:	00f687b3          	add	a5,a3,a5
    433c:	000016b7          	lui	a3,0x1
    4340:	00f687b3          	add	a5,a3,a5
    4344:	cce78423          	sb	a4,-824(a5)
    4348:	fd042603          	lw	a2,-48(s0)
    434c:	fcc42583          	lw	a1,-52(s0)
    4350:	fd442503          	lw	a0,-44(s0)
    4354:	73c0d0ef          	jal	11a90 <cap_untyped_cap_new>
    4358:	00050713          	mv	a4,a0
    435c:	00058793          	mv	a5,a1
    4360:	fee42023          	sw	a4,-32(s0)
    4364:	fef42223          	sw	a5,-28(s0)
    4368:	fe042603          	lw	a2,-32(s0)
    436c:	fe442683          	lw	a3,-28(s0)
    4370:	fd842503          	lw	a0,-40(s0)
    4374:	fdc42583          	lw	a1,-36(s0)
    4378:	a1dff0ef          	jal	3d94 <provide_cap>
    437c:	fea42623          	sw	a0,-20(s0)
    4380:	0180006f          	j	4398 <provide_untyped_cap+0xf8>
    4384:	000287b7          	lui	a5,0x28
    4388:	41878513          	addi	a0,a5,1048 # 28418 <syscallMessage+0x3a0>
    438c:	2f8180ef          	jal	1c684 <puts>
    4390:	00100793          	li	a5,1
    4394:	fef42623          	sw	a5,-20(s0)
    4398:	fec42783          	lw	a5,-20(s0)
    439c:	00078513          	mv	a0,a5
    43a0:	03c12083          	lw	ra,60(sp)
    43a4:	03812403          	lw	s0,56(sp)
    43a8:	03412483          	lw	s1,52(sp)
    43ac:	04010113          	addi	sp,sp,64
    43b0:	00008067          	ret

000043b4 <boot_clz>:
    43b4:	fe010113          	addi	sp,sp,-32
    43b8:	00112e23          	sw	ra,28(sp)
    43bc:	00812c23          	sw	s0,24(sp)
    43c0:	02010413          	addi	s0,sp,32
    43c4:	fea42623          	sw	a0,-20(s0)
    43c8:	fec42503          	lw	a0,-20(s0)
    43cc:	cedfc0ef          	jal	10b8 <__clzsi2>
    43d0:	00050793          	mv	a5,a0
    43d4:	00078513          	mv	a0,a5
    43d8:	01c12083          	lw	ra,28(sp)
    43dc:	01812403          	lw	s0,24(sp)
    43e0:	02010113          	addi	sp,sp,32
    43e4:	00008067          	ret

000043e8 <boot_ctz>:
    43e8:	fe010113          	addi	sp,sp,-32
    43ec:	00112e23          	sw	ra,28(sp)
    43f0:	00812c23          	sw	s0,24(sp)
    43f4:	02010413          	addi	s0,sp,32
    43f8:	fea42623          	sw	a0,-20(s0)
    43fc:	fec42503          	lw	a0,-20(s0)
    4400:	cbdfc0ef          	jal	10bc <__ctzsi2>
    4404:	00050793          	mv	a5,a0
    4408:	00078513          	mv	a0,a5
    440c:	01c12083          	lw	ra,28(sp)
    4410:	01812403          	lw	s0,24(sp)
    4414:	02010113          	addi	sp,sp,32
    4418:	00008067          	ret

0000441c <create_untypeds_for_region>:
    441c:	fc010113          	addi	sp,sp,-64
    4420:	02112e23          	sw	ra,60(sp)
    4424:	02812c23          	sw	s0,56(sp)
    4428:	04010413          	addi	s0,sp,64
    442c:	fca42c23          	sw	a0,-40(s0)
    4430:	fcb42e23          	sw	a1,-36(s0)
    4434:	fcc42a23          	sw	a2,-44(s0)
    4438:	fcd42623          	sw	a3,-52(s0)
    443c:	fce42823          	sw	a4,-48(s0)
    4440:	fcf42423          	sw	a5,-56(s0)
    4444:	0dc0006f          	j	4520 <create_untypeds_for_region+0x104>
    4448:	fd442783          	lw	a5,-44(s0)
    444c:	02079063          	bnez	a5,446c <create_untypeds_for_region+0x50>
    4450:	fcc42703          	lw	a4,-52(s0)
    4454:	f00007b7          	lui	a5,0xf0000
    4458:	00f71a63          	bne	a4,a5,446c <create_untypeds_for_region+0x50>
    445c:	fcc42703          	lw	a4,-52(s0)
    4460:	000017b7          	lui	a5,0x1
    4464:	00f707b3          	add	a5,a4,a5
    4468:	fcf42623          	sw	a5,-52(s0)
    446c:	fd042703          	lw	a4,-48(s0)
    4470:	fcc42783          	lw	a5,-52(s0)
    4474:	40f707b3          	sub	a5,a4,a5
    4478:	00078513          	mv	a0,a5
    447c:	f39ff0ef          	jal	43b4 <boot_clz>
    4480:	00050713          	mv	a4,a0
    4484:	01f00793          	li	a5,31
    4488:	40e787b3          	sub	a5,a5,a4
    448c:	fef42623          	sw	a5,-20(s0)
    4490:	fcc42783          	lw	a5,-52(s0)
    4494:	00078513          	mv	a0,a5
    4498:	f51ff0ef          	jal	43e8 <boot_ctz>
    449c:	fea42423          	sw	a0,-24(s0)
    44a0:	fe842703          	lw	a4,-24(s0)
    44a4:	fec42783          	lw	a5,-20(s0)
    44a8:	00f77663          	bleu	a5,a4,44b4 <create_untypeds_for_region+0x98>
    44ac:	fe842783          	lw	a5,-24(s0)
    44b0:	fef42623          	sw	a5,-20(s0)
    44b4:	fec42703          	lw	a4,-20(s0)
    44b8:	00300793          	li	a5,3
    44bc:	00e7ee63          	bltu	a5,a4,44d8 <create_untypeds_for_region+0xbc>
    44c0:	000287b7          	lui	a5,0x28
    44c4:	44c78513          	addi	a0,a5,1100 # 2844c <syscallMessage+0x3d4>
    44c8:	35c120ef          	jal	16824 <cputstring>
    44cc:	00300513          	li	a0,3
    44d0:	3a4120ef          	jal	16874 <terminate>
    44d4:	0080006f          	j	44dc <create_untypeds_for_region+0xc0>
    44d8:	00000013          	nop
    44dc:	fcc42683          	lw	a3,-52(s0)
    44e0:	fc842783          	lw	a5,-56(s0)
    44e4:	fec42703          	lw	a4,-20(s0)
    44e8:	fd442603          	lw	a2,-44(s0)
    44ec:	fd842503          	lw	a0,-40(s0)
    44f0:	fdc42583          	lw	a1,-36(s0)
    44f4:	dadff0ef          	jal	42a0 <provide_untyped_cap>
    44f8:	00050793          	mv	a5,a0
    44fc:	00079663          	bnez	a5,4508 <create_untypeds_for_region+0xec>
    4500:	00000793          	li	a5,0
    4504:	0340006f          	j	4538 <create_untypeds_for_region+0x11c>
    4508:	fcc42703          	lw	a4,-52(s0)
    450c:	00100693          	li	a3,1
    4510:	fec42783          	lw	a5,-20(s0)
    4514:	00f697b3          	sll	a5,a3,a5
    4518:	00f707b3          	add	a5,a4,a5
    451c:	fcf42623          	sw	a5,-52(s0)
    4520:	fcc42503          	lw	a0,-52(s0)
    4524:	fd042583          	lw	a1,-48(s0)
    4528:	578110ef          	jal	15aa0 <is_reg_empty>
    452c:	00050793          	mv	a5,a0
    4530:	f0078ce3          	beqz	a5,4448 <create_untypeds_for_region+0x2c>
    4534:	00100793          	li	a5,1
    4538:	00078513          	mv	a0,a5
    453c:	03c12083          	lw	ra,60(sp)
    4540:	03812403          	lw	s0,56(sp)
    4544:	04010113          	addi	sp,sp,64
    4548:	00008067          	ret

0000454c <create_untypeds>:
    454c:	fc010113          	addi	sp,sp,-64
    4550:	02112e23          	sw	ra,60(sp)
    4554:	02812c23          	sw	s0,56(sp)
    4558:	04010413          	addi	s0,sp,64
    455c:	fca42423          	sw	a0,-56(s0)
    4560:	fcb42623          	sw	a1,-52(s0)
    4564:	fcc42023          	sw	a2,-64(s0)
    4568:	fcd42223          	sw	a3,-60(s0)
    456c:	000057b7          	lui	a5,0x5
    4570:	9e478793          	addi	a5,a5,-1564 # 49e4 <ndks_boot>
    4574:	0147a783          	lw	a5,20(a5)
    4578:	fef42423          	sw	a5,-24(s0)
    457c:	fe842783          	lw	a5,-24(s0)
    4580:	fc042683          	lw	a3,-64(s0)
    4584:	fc442703          	lw	a4,-60(s0)
    4588:	00000613          	li	a2,0
    458c:	fc842503          	lw	a0,-56(s0)
    4590:	fcc42583          	lw	a1,-52(s0)
    4594:	e89ff0ef          	jal	441c <create_untypeds_for_region>
    4598:	00050793          	mv	a5,a0
    459c:	00079663          	bnez	a5,45a8 <create_untypeds+0x5c>
    45a0:	00000793          	li	a5,0
    45a4:	0d40006f          	j	4678 <create_untypeds+0x12c>
    45a8:	fe042623          	sw	zero,-20(s0)
    45ac:	0900006f          	j	463c <create_untypeds+0xf0>
    45b0:	000057b7          	lui	a5,0x5
    45b4:	fec42703          	lw	a4,-20(s0)
    45b8:	00371713          	slli	a4,a4,0x3
    45bc:	9e478793          	addi	a5,a5,-1564 # 49e4 <ndks_boot>
    45c0:	00f707b3          	add	a5,a4,a5
    45c4:	0007a703          	lw	a4,0(a5)
    45c8:	fce42e23          	sw	a4,-36(s0)
    45cc:	0047a783          	lw	a5,4(a5)
    45d0:	fef42023          	sw	a5,-32(s0)
    45d4:	000057b7          	lui	a5,0x5
    45d8:	fec42703          	lw	a4,-20(s0)
    45dc:	00371713          	slli	a4,a4,0x3
    45e0:	9e478793          	addi	a5,a5,-1564 # 49e4 <ndks_boot>
    45e4:	00f707b3          	add	a5,a4,a5
    45e8:	0007a023          	sw	zero,0(a5)
    45ec:	00005737          	lui	a4,0x5
    45f0:	fec42783          	lw	a5,-20(s0)
    45f4:	9e470713          	addi	a4,a4,-1564 # 49e4 <ndks_boot>
    45f8:	00379793          	slli	a5,a5,0x3
    45fc:	00f707b3          	add	a5,a4,a5
    4600:	0007a223          	sw	zero,4(a5)
    4604:	fe842783          	lw	a5,-24(s0)
    4608:	fdc42683          	lw	a3,-36(s0)
    460c:	fe042703          	lw	a4,-32(s0)
    4610:	00000613          	li	a2,0
    4614:	fc842503          	lw	a0,-56(s0)
    4618:	fcc42583          	lw	a1,-52(s0)
    461c:	e01ff0ef          	jal	441c <create_untypeds_for_region>
    4620:	00050793          	mv	a5,a0
    4624:	00079663          	bnez	a5,4630 <create_untypeds+0xe4>
    4628:	00000793          	li	a5,0
    462c:	04c0006f          	j	4678 <create_untypeds+0x12c>
    4630:	fec42783          	lw	a5,-20(s0)
    4634:	00178793          	addi	a5,a5,1
    4638:	fef42623          	sw	a5,-20(s0)
    463c:	fec42703          	lw	a4,-20(s0)
    4640:	00100793          	li	a5,1
    4644:	f6e7f6e3          	bleu	a4,a5,45b0 <create_untypeds+0x64>
    4648:	000057b7          	lui	a5,0x5
    464c:	9e478793          	addi	a5,a5,-1564 # 49e4 <ndks_boot>
    4650:	0147a783          	lw	a5,20(a5)
    4654:	fef42223          	sw	a5,-28(s0)
    4658:	000057b7          	lui	a5,0x5
    465c:	9e478793          	addi	a5,a5,-1564 # 49e4 <ndks_boot>
    4660:	0107a783          	lw	a5,16(a5)
    4664:	fe842703          	lw	a4,-24(s0)
    4668:	02e7ac23          	sw	a4,56(a5)
    466c:	fe442703          	lw	a4,-28(s0)
    4670:	02e7ae23          	sw	a4,60(a5)
    4674:	00100793          	li	a5,1
    4678:	00078513          	mv	a0,a5
    467c:	03c12083          	lw	ra,60(sp)
    4680:	03812403          	lw	s0,56(sp)
    4684:	04010113          	addi	sp,sp,64
    4688:	00008067          	ret

0000468c <bi_finalise>:
    468c:	fe010113          	addi	sp,sp,-32
    4690:	00812e23          	sw	s0,28(sp)
    4694:	02010413          	addi	s0,sp,32
    4698:	000057b7          	lui	a5,0x5
    469c:	9e478793          	addi	a5,a5,-1564 # 49e4 <ndks_boot>
    46a0:	0147a783          	lw	a5,20(a5)
    46a4:	fef42623          	sw	a5,-20(s0)
    46a8:	000057b7          	lui	a5,0x5
    46ac:	9e478793          	addi	a5,a5,-1564 # 49e4 <ndks_boot>
    46b0:	0187a783          	lw	a5,24(a5)
    46b4:	fef42423          	sw	a5,-24(s0)
    46b8:	000057b7          	lui	a5,0x5
    46bc:	9e478793          	addi	a5,a5,-1564 # 49e4 <ndks_boot>
    46c0:	0107a783          	lw	a5,16(a5)
    46c4:	fec42703          	lw	a4,-20(s0)
    46c8:	00e7a823          	sw	a4,16(a5)
    46cc:	fe842703          	lw	a4,-24(s0)
    46d0:	00e7aa23          	sw	a4,20(a5)
    46d4:	00000013          	nop
    46d8:	01c12403          	lw	s0,28(sp)
    46dc:	02010113          	addi	sp,sp,32
    46e0:	00008067          	ret

000046e4 <configureIdleThread>:
    46e4:	fe010113          	addi	sp,sp,-32
    46e8:	00112e23          	sw	ra,28(sp)
    46ec:	00812c23          	sw	s0,24(sp)
    46f0:	02010413          	addi	s0,sp,32
    46f4:	fea42623          	sw	a0,-20(s0)
    46f8:	fec42503          	lw	a0,-20(s0)
    46fc:	b51fe0ef          	jal	324c <Arch_configureIdleThread>
    4700:	00800593          	li	a1,8
    4704:	fec42503          	lw	a0,-20(s0)
    4708:	6f8170ef          	jal	1be00 <setThreadState>
    470c:	00000013          	nop
    4710:	01c12083          	lw	ra,28(sp)
    4714:	01812403          	lw	s0,24(sp)
    4718:	02010113          	addi	sp,sp,32
    471c:	00008067          	ret

00004720 <get_num_avail_p_regs>:
    4720:	ff010113          	addi	sp,sp,-16
    4724:	00812623          	sw	s0,12(sp)
    4728:	01010413          	addi	s0,sp,16
    472c:	00100793          	li	a5,1
    4730:	00078513          	mv	a0,a5
    4734:	00c12403          	lw	s0,12(sp)
    4738:	01010113          	addi	sp,sp,16
    473c:	00008067          	ret

00004740 <get_avail_p_reg>:
    4740:	fd010113          	addi	sp,sp,-48
    4744:	02812623          	sw	s0,44(sp)
    4748:	03010413          	addi	s0,sp,48
    474c:	fca42e23          	sw	a0,-36(s0)
    4750:	000057b7          	lui	a5,0x5
    4754:	fdc42703          	lw	a4,-36(s0)
    4758:	00371713          	slli	a4,a4,0x3
    475c:	88478793          	addi	a5,a5,-1916 # 4884 <avail_p_regs>
    4760:	00f707b3          	add	a5,a4,a5
    4764:	0007a703          	lw	a4,0(a5)
    4768:	fee42423          	sw	a4,-24(s0)
    476c:	0047a783          	lw	a5,4(a5)
    4770:	fef42623          	sw	a5,-20(s0)
    4774:	00000713          	li	a4,0
    4778:	fe842703          	lw	a4,-24(s0)
    477c:	00000793          	li	a5,0
    4780:	fec42783          	lw	a5,-20(s0)
    4784:	00070613          	mv	a2,a4
    4788:	00078693          	mv	a3,a5
    478c:	00060713          	mv	a4,a2
    4790:	00068793          	mv	a5,a3
    4794:	00070513          	mv	a0,a4
    4798:	00078593          	mv	a1,a5
    479c:	02c12403          	lw	s0,44(sp)
    47a0:	03010113          	addi	sp,sp,48
    47a4:	00008067          	ret

000047a8 <get_num_dev_p_regs>:
    47a8:	ff010113          	addi	sp,sp,-16
    47ac:	00812623          	sw	s0,12(sp)
    47b0:	01010413          	addi	s0,sp,16
    47b4:	00000793          	li	a5,0
    47b8:	00078513          	mv	a0,a5
    47bc:	00c12403          	lw	s0,12(sp)
    47c0:	01010113          	addi	sp,sp,16
    47c4:	00008067          	ret

000047c8 <get_dev_p_reg>:
    47c8:	fd010113          	addi	sp,sp,-48
    47cc:	02812623          	sw	s0,44(sp)
    47d0:	03010413          	addi	s0,sp,48
    47d4:	fca42e23          	sw	a0,-36(s0)
    47d8:	000057b7          	lui	a5,0x5
    47dc:	fdc42703          	lw	a4,-36(s0)
    47e0:	00371713          	slli	a4,a4,0x3
    47e4:	88c78793          	addi	a5,a5,-1908 # 488c <dev_p_regs>
    47e8:	00f707b3          	add	a5,a4,a5
    47ec:	0007a703          	lw	a4,0(a5)
    47f0:	fee42423          	sw	a4,-24(s0)
    47f4:	0047a783          	lw	a5,4(a5)
    47f8:	fef42623          	sw	a5,-20(s0)
    47fc:	00000713          	li	a4,0
    4800:	fe842703          	lw	a4,-24(s0)
    4804:	00000793          	li	a5,0
    4808:	fec42783          	lw	a5,-20(s0)
    480c:	00070613          	mv	a2,a4
    4810:	00078693          	mv	a3,a5
    4814:	00060713          	mv	a4,a2
    4818:	00068793          	mv	a5,a3
    481c:	00070513          	mv	a0,a4
    4820:	00078593          	mv	a1,a5
    4824:	02c12403          	lw	s0,44(sp)
    4828:	03010113          	addi	sp,sp,48
    482c:	00008067          	ret

00004830 <initTimer>:
    4830:	ff010113          	addi	sp,sp,-16
    4834:	00812623          	sw	s0,12(sp)
    4838:	01010413          	addi	s0,sp,16
    483c:	00000013          	nop
    4840:	00c12403          	lw	s0,12(sp)
    4844:	01010113          	addi	sp,sp,16
    4848:	00008067          	ret

0000484c <initL2Cache>:
    484c:	ff010113          	addi	sp,sp,-16
    4850:	00812623          	sw	s0,12(sp)
    4854:	01010413          	addi	s0,sp,16
    4858:	00000013          	nop
    485c:	00c12403          	lw	s0,12(sp)
    4860:	01010113          	addi	sp,sp,16
    4864:	00008067          	ret

00004868 <initIRQController>:
    4868:	ff010113          	addi	sp,sp,-16
    486c:	00812623          	sw	s0,12(sp)
    4870:	01010413          	addi	s0,sp,16
    4874:	00000013          	nop
    4878:	00c12403          	lw	s0,12(sp)
    487c:	01010113          	addi	sp,sp,16
    4880:	00008067          	ret

00004884 <avail_p_regs>:
    4884:	0000                	unimp
    4886:	8000                	addi	zero,zero,0
    4888:	0000                	unimp
    488a:	8800                	addi	a6,a6,0

0000488c <dev_p_regs>:
    488c:	0000                	unimp
    488e:	43f8                	mv	t2,t5
    4890:	1000                	sbreak
    4892:	43f8                	mv	t2,t5
    4894:	4000                	nop
    4896:	43f8                	mv	t2,t5
    4898:	5000                	jr	zero
    489a:	43f8                	mv	t2,t5
    489c:	8000                	addi	zero,zero,0
    489e:	43f8                	mv	t2,t5
    48a0:	9000                	addi	zero,zero,-32
    48a2:	43f8                	mv	t2,t5
    48a4:	c000                	slli	zero,zero,0x0
    48a6:	43f8                	mv	t2,t5
    48a8:	d000                	slli	zero,zero,0x20
    48aa:	43f8                	mv	t2,t5
    48ac:	0000                	unimp
    48ae:	43f9                	sw	a5,24(a4)
    48b0:	1000                	sbreak
    48b2:	43f9                	sw	a5,24(a4)
    48b4:	4000                	nop
    48b6:	43f9                	sw	a5,24(a4)
    48b8:	5000                	jr	zero
    48ba:	43f9                	sw	a5,24(a4)
    48bc:	8000                	addi	zero,zero,0
    48be:	43f9                	sw	a5,24(a4)
    48c0:	9000                	addi	zero,zero,-32
    48c2:	43f9                	sw	a5,24(a4)
    48c4:	c000                	slli	zero,zero,0x0
    48c6:	43f9                	sw	a5,24(a4)
    48c8:	d000                	slli	zero,zero,0x20
    48ca:	43f9                	sw	a5,24(a4)
    48cc:	0000                	unimp
    48ce:	43fa                	0x43fa
    48d0:	1000                	sbreak
    48d2:	43fa                	0x43fa
    48d4:	4000                	nop
    48d6:	43fa                	0x43fa
    48d8:	5000                	jr	zero
    48da:	43fa                	0x43fa
    48dc:	8000                	addi	zero,zero,0
    48de:	43fa                	0x43fa
    48e0:	9000                	addi	zero,zero,-32
    48e2:	43fa                	0x43fa
    48e4:	c000                	slli	zero,zero,0x0
    48e6:	43fa                	0x43fa
    48e8:	d000                	slli	zero,zero,0x20
    48ea:	43fa                	0x43fa
    48ec:	0000                	unimp
    48ee:	100043fb          	custom3	t2,0,0,8
    48f2:	400043fb          	custom3	t2,0,0,32
    48f6:	500043fb          	custom3	t2,0,0,40
    48fa:	400043fb          	custom3	t2,0,0,32
    48fe:	5000                	jr	zero
    4900:	5000                	jr	zero
    4902:	5000                	jr	zero
    4904:	8000                	addi	zero,zero,0
    4906:	5000                	jr	zero
    4908:	9000                	addi	zero,zero,-32
    490a:	5000                	jr	zero
    490c:	c000                	slli	zero,zero,0x0
    490e:	5000                	jr	zero
    4910:	d000                	slli	zero,zero,0x20
    4912:	5000                	jr	zero
    4914:	0000                	unimp
    4916:	5001                	sw	s0,32(s0)
    4918:	1000                	sbreak
    491a:	5001                	sw	s0,32(s0)
    491c:	4000                	nop
    491e:	5001                	sw	s0,32(s0)
    4920:	5000                	jr	zero
    4922:	5001                	sw	s0,32(s0)
    4924:	8000                	addi	zero,zero,0
    4926:	5001                	sw	s0,32(s0)
    4928:	9000                	addi	zero,zero,-32
    492a:	5001                	sw	s0,32(s0)
    492c:	c000                	slli	zero,zero,0x0
    492e:	5001                	sw	s0,32(s0)
    4930:	d000                	slli	zero,zero,0x20
    4932:	5001                	sw	s0,32(s0)
    4934:	0000                	unimp
    4936:	5002                	0x5002
    4938:	1000                	sbreak
    493a:	5002                	0x5002
    493c:	4000                	nop
    493e:	5002                	0x5002
    4940:	5000                	jr	zero
    4942:	5002                	0x5002
    4944:	8000                	addi	zero,zero,0
    4946:	5002                	0x5002
    4948:	9000                	addi	zero,zero,-32
    494a:	5002                	0x5002
    494c:	c000                	slli	zero,zero,0x0
    494e:	d0005003          	lhu	zero,-768(zero)
    4952:	00005003          	lhu	zero,0(zero)
    4956:	53f8                	jalr	t2,t5
    4958:	1000                	sbreak
    495a:	53f8                	jalr	t2,t5
    495c:	4000                	nop
    495e:	53f8                	jalr	t2,t5
    4960:	5000                	jr	zero
    4962:	53f8                	jalr	t2,t5
    4964:	c000                	slli	zero,zero,0x0
    4966:	53f8                	jalr	t2,t5
    4968:	d000                	slli	zero,zero,0x20
    496a:	53f8                	jalr	t2,t5
    496c:	0000                	unimp
    496e:	53f9                	sw	a5,56(a4)
    4970:	1000                	sbreak
    4972:	53f9                	sw	a5,56(a4)
    4974:	8000                	addi	zero,zero,0
    4976:	53f9                	sw	a5,56(a4)
    4978:	9000                	addi	zero,zero,-32
    497a:	53f9                	sw	a5,56(a4)
    497c:	4000                	nop
    497e:	53fa                	0x53fa
    4980:	8000                	addi	zero,zero,0
    4982:	53fa                	0x53fa
    4984:	0000                	unimp
    4986:	100053fb          	0x100053fb
    498a:	400053fb          	0x400053fb
    498e:	53fc                	jalr	t2,t6
    4990:	5000                	jr	zero
    4992:	53fc                	jalr	t2,t6
    4994:	c000                	slli	zero,zero,0x0
    4996:	53fc                	jalr	t2,t6
    4998:	0000                	unimp
    499a:	53fd                	sw	a5,56(a5)
    499c:	0000                	unimp
    499e:	53fd                	sw	a5,56(a5)
    49a0:	4000                	nop
    49a2:	53fd                	sw	a5,56(a5)
    49a4:	8000                	addi	zero,zero,0
    49a6:	53fd                	sw	a5,56(a5)
    49a8:	9000                	addi	zero,zero,-32
    49aa:	53fd                	sw	a5,56(a5)
    49ac:	0000                	unimp
    49ae:	53fe                	0x53fe
    49b0:	1000                	sbreak
    49b2:	53fe                	0x53fe
    49b4:	c000                	slli	zero,zero,0x0
    49b6:	53fe                	0x53fe
    49b8:	d000                	slli	zero,zero,0x20
    49ba:	53fe                	0x53fe
    49bc:	0000                	unimp
    49be:	a000                	addi	zero,zero,0
    49c0:	0000                	unimp
    49c2:	a400                	addi	s0,s0,0
    49c4:	0000                	unimp
    49c6:	a800                	addi	a6,a6,0
    49c8:	0000                	unimp
    49ca:	aa00                	addi	s4,s4,0
    49cc:	0000                	unimp
    49ce:	b400                	addi	s0,s0,32
    49d0:	0000                	unimp
    49d2:	b600                	addi	a2,a2,32
    49d4:	0000                	unimp
    49d6:	b600                	addi	a2,a2,32
    49d8:	0000                	unimp
    49da:	b800                	addi	a6,a6,32
    49dc:	0000                	unimp
    49de:	c000                	slli	zero,zero,0x0
    49e0:	0000                	unimp
    49e2:	c200                	slli	tp,tp,0x0

000049e4 <ndks_boot>:
	...

Disassembly of section .text:

00010000 <halt>:
   10000:	00000013          	nop

00010004 <message_info_new>:
   10004:	fd010113          	addi	sp,sp,-48
   10008:	02112623          	sw	ra,44(sp)
   1000c:	02812423          	sw	s0,40(sp)
   10010:	03010413          	addi	s0,sp,48
   10014:	fca42e23          	sw	a0,-36(s0)
   10018:	fcb42c23          	sw	a1,-40(s0)
   1001c:	fcc42a23          	sw	a2,-44(s0)
   10020:	fcd42823          	sw	a3,-48(s0)
   10024:	fe042623          	sw	zero,-20(s0)
   10028:	fdc42703          	lw	a4,-36(s0)
   1002c:	fff007b7          	lui	a5,0xfff00
   10030:	00f777b3          	and	a5,a4,a5
   10034:	02078263          	beqz	a5,10058 <message_info_new+0x54>
   10038:	0002b7b7          	lui	a5,0x2b
   1003c:	d5c78693          	addi	a3,a5,-676 # 2ad5c <__FUNCTION__.1495>
   10040:	01400613          	li	a2,20
   10044:	000277b7          	lui	a5,0x27
   10048:	d4c78593          	addi	a1,a5,-692 # 26d4c <halt_message+0xc>
   1004c:	000277b7          	lui	a5,0x27
   10050:	d6078513          	addi	a0,a5,-672 # 26d60 <halt_message+0x20>
   10054:	289070ef          	jal	17adc <_assert_fail>
   10058:	fec42703          	lw	a4,-20(s0)
   1005c:	fdc42783          	lw	a5,-36(s0)
   10060:	00c79793          	slli	a5,a5,0xc
   10064:	00f767b3          	or	a5,a4,a5
   10068:	fef42623          	sw	a5,-20(s0)
   1006c:	fd842783          	lw	a5,-40(s0)
   10070:	ff87f793          	andi	a5,a5,-8
   10074:	02078263          	beqz	a5,10098 <message_info_new+0x94>
   10078:	0002b7b7          	lui	a5,0x2b
   1007c:	d5c78693          	addi	a3,a5,-676 # 2ad5c <__FUNCTION__.1495>
   10080:	01700613          	li	a2,23
   10084:	000277b7          	lui	a5,0x27
   10088:	d4c78593          	addi	a1,a5,-692 # 26d4c <halt_message+0xc>
   1008c:	000277b7          	lui	a5,0x27
   10090:	d7c78513          	addi	a0,a5,-644 # 26d7c <halt_message+0x3c>
   10094:	249070ef          	jal	17adc <_assert_fail>
   10098:	fec42703          	lw	a4,-20(s0)
   1009c:	fd842783          	lw	a5,-40(s0)
   100a0:	0077f793          	andi	a5,a5,7
   100a4:	00979793          	slli	a5,a5,0x9
   100a8:	00f767b3          	or	a5,a4,a5
   100ac:	fef42623          	sw	a5,-20(s0)
   100b0:	fd442783          	lw	a5,-44(s0)
   100b4:	ffc7f793          	andi	a5,a5,-4
   100b8:	02078263          	beqz	a5,100dc <message_info_new+0xd8>
   100bc:	0002b7b7          	lui	a5,0x2b
   100c0:	d5c78693          	addi	a3,a5,-676 # 2ad5c <__FUNCTION__.1495>
   100c4:	01a00613          	li	a2,26
   100c8:	000277b7          	lui	a5,0x27
   100cc:	d4c78593          	addi	a1,a5,-692 # 26d4c <halt_message+0xc>
   100d0:	000277b7          	lui	a5,0x27
   100d4:	d9c78513          	addi	a0,a5,-612 # 26d9c <halt_message+0x5c>
   100d8:	205070ef          	jal	17adc <_assert_fail>
   100dc:	fec42703          	lw	a4,-20(s0)
   100e0:	fd442783          	lw	a5,-44(s0)
   100e4:	0037f793          	andi	a5,a5,3
   100e8:	00779793          	slli	a5,a5,0x7
   100ec:	00f767b3          	or	a5,a4,a5
   100f0:	fef42623          	sw	a5,-20(s0)
   100f4:	fd042783          	lw	a5,-48(s0)
   100f8:	f807f793          	andi	a5,a5,-128
   100fc:	02078263          	beqz	a5,10120 <message_info_new+0x11c>
   10100:	0002b7b7          	lui	a5,0x2b
   10104:	d5c78693          	addi	a3,a5,-676 # 2ad5c <__FUNCTION__.1495>
   10108:	01d00613          	li	a2,29
   1010c:	000277b7          	lui	a5,0x27
   10110:	d4c78593          	addi	a1,a5,-692 # 26d4c <halt_message+0xc>
   10114:	000277b7          	lui	a5,0x27
   10118:	db878513          	addi	a0,a5,-584 # 26db8 <halt_message+0x78>
   1011c:	1c1070ef          	jal	17adc <_assert_fail>
   10120:	fec42703          	lw	a4,-20(s0)
   10124:	fd042783          	lw	a5,-48(s0)
   10128:	07f7f793          	andi	a5,a5,127
   1012c:	00f767b3          	or	a5,a4,a5
   10130:	fef42623          	sw	a5,-20(s0)
   10134:	fec42783          	lw	a5,-20(s0)
   10138:	00078513          	mv	a0,a5
   1013c:	02c12083          	lw	ra,44(sp)
   10140:	02812403          	lw	s0,40(sp)
   10144:	03010113          	addi	sp,sp,48
   10148:	00008067          	ret

0001014c <message_info_get_msgLabel>:
   1014c:	fe010113          	addi	sp,sp,-32
   10150:	00812e23          	sw	s0,28(sp)
   10154:	02010413          	addi	s0,sp,32
   10158:	fea42623          	sw	a0,-20(s0)
   1015c:	fec42783          	lw	a5,-20(s0)
   10160:	00c7d793          	srli	a5,a5,0xc
   10164:	00078513          	mv	a0,a5
   10168:	01c12403          	lw	s0,28(sp)
   1016c:	02010113          	addi	sp,sp,32
   10170:	00008067          	ret

00010174 <message_info_get_msgCapsUnwrapped>:
   10174:	fe010113          	addi	sp,sp,-32
   10178:	00812e23          	sw	s0,28(sp)
   1017c:	02010413          	addi	s0,sp,32
   10180:	fea42623          	sw	a0,-20(s0)
   10184:	fec42703          	lw	a4,-20(s0)
   10188:	000017b7          	lui	a5,0x1
   1018c:	e0078793          	addi	a5,a5,-512 # e00 <KERNEL_BASE+0xd00>
   10190:	00f777b3          	and	a5,a4,a5
   10194:	0097d793          	srli	a5,a5,0x9
   10198:	00078513          	mv	a0,a5
   1019c:	01c12403          	lw	s0,28(sp)
   101a0:	02010113          	addi	sp,sp,32
   101a4:	00008067          	ret

000101a8 <message_info_set_msgCapsUnwrapped>:
   101a8:	fe010113          	addi	sp,sp,-32
   101ac:	00112e23          	sw	ra,28(sp)
   101b0:	00812c23          	sw	s0,24(sp)
   101b4:	02010413          	addi	s0,sp,32
   101b8:	fea42623          	sw	a0,-20(s0)
   101bc:	feb42423          	sw	a1,-24(s0)
   101c0:	fe842783          	lw	a5,-24(s0)
   101c4:	ff87f793          	andi	a5,a5,-8
   101c8:	02078263          	beqz	a5,101ec <message_info_set_msgCapsUnwrapped+0x44>
   101cc:	0002b7b7          	lui	a5,0x2b
   101d0:	d7078693          	addi	a3,a5,-656 # 2ad70 <__FUNCTION__.1506>
   101d4:	03000613          	li	a2,48
   101d8:	000277b7          	lui	a5,0x27
   101dc:	d4c78593          	addi	a1,a5,-692 # 26d4c <halt_message+0xc>
   101e0:	000277b7          	lui	a5,0x27
   101e4:	dd478513          	addi	a0,a5,-556 # 26dd4 <halt_message+0x94>
   101e8:	0f5070ef          	jal	17adc <_assert_fail>
   101ec:	fec42703          	lw	a4,-20(s0)
   101f0:	fffff7b7          	lui	a5,0xfffff
   101f4:	1ff78793          	addi	a5,a5,511 # fffff1ff <ki_end+0xfffca1ff>
   101f8:	00f777b3          	and	a5,a4,a5
   101fc:	fef42623          	sw	a5,-20(s0)
   10200:	fec42703          	lw	a4,-20(s0)
   10204:	fe842783          	lw	a5,-24(s0)
   10208:	00979693          	slli	a3,a5,0x9
   1020c:	000017b7          	lui	a5,0x1
   10210:	e0078793          	addi	a5,a5,-512 # e00 <KERNEL_BASE+0xd00>
   10214:	00f6f7b3          	and	a5,a3,a5
   10218:	00f767b3          	or	a5,a4,a5
   1021c:	fef42623          	sw	a5,-20(s0)
   10220:	fec42783          	lw	a5,-20(s0)
   10224:	00078513          	mv	a0,a5
   10228:	01c12083          	lw	ra,28(sp)
   1022c:	01812403          	lw	s0,24(sp)
   10230:	02010113          	addi	sp,sp,32
   10234:	00008067          	ret

00010238 <message_info_get_msgExtraCaps>:
   10238:	fe010113          	addi	sp,sp,-32
   1023c:	00812e23          	sw	s0,28(sp)
   10240:	02010413          	addi	s0,sp,32
   10244:	fea42623          	sw	a0,-20(s0)
   10248:	fec42783          	lw	a5,-20(s0)
   1024c:	1807f793          	andi	a5,a5,384
   10250:	0077d793          	srli	a5,a5,0x7
   10254:	00078513          	mv	a0,a5
   10258:	01c12403          	lw	s0,28(sp)
   1025c:	02010113          	addi	sp,sp,32
   10260:	00008067          	ret

00010264 <message_info_set_msgExtraCaps>:
   10264:	fe010113          	addi	sp,sp,-32
   10268:	00112e23          	sw	ra,28(sp)
   1026c:	00812c23          	sw	s0,24(sp)
   10270:	02010413          	addi	s0,sp,32
   10274:	fea42623          	sw	a0,-20(s0)
   10278:	feb42423          	sw	a1,-24(s0)
   1027c:	fe842783          	lw	a5,-24(s0)
   10280:	ffc7f793          	andi	a5,a5,-4
   10284:	02078263          	beqz	a5,102a8 <message_info_set_msgExtraCaps+0x44>
   10288:	0002b7b7          	lui	a5,0x2b
   1028c:	da478693          	addi	a3,a5,-604 # 2ada4 <__FUNCTION__.1514>
   10290:	03e00613          	li	a2,62
   10294:	000277b7          	lui	a5,0x27
   10298:	d4c78593          	addi	a1,a5,-692 # 26d4c <halt_message+0xc>
   1029c:	000277b7          	lui	a5,0x27
   102a0:	df078513          	addi	a0,a5,-528 # 26df0 <halt_message+0xb0>
   102a4:	039070ef          	jal	17adc <_assert_fail>
   102a8:	fec42783          	lw	a5,-20(s0)
   102ac:	e7f7f793          	andi	a5,a5,-385
   102b0:	fef42623          	sw	a5,-20(s0)
   102b4:	fec42703          	lw	a4,-20(s0)
   102b8:	fe842783          	lw	a5,-24(s0)
   102bc:	00779793          	slli	a5,a5,0x7
   102c0:	1807f793          	andi	a5,a5,384
   102c4:	00f767b3          	or	a5,a4,a5
   102c8:	fef42623          	sw	a5,-20(s0)
   102cc:	fec42783          	lw	a5,-20(s0)
   102d0:	00078513          	mv	a0,a5
   102d4:	01c12083          	lw	ra,28(sp)
   102d8:	01812403          	lw	s0,24(sp)
   102dc:	02010113          	addi	sp,sp,32
   102e0:	00008067          	ret

000102e4 <message_info_get_msgLength>:
   102e4:	fe010113          	addi	sp,sp,-32
   102e8:	00812e23          	sw	s0,28(sp)
   102ec:	02010413          	addi	s0,sp,32
   102f0:	fea42623          	sw	a0,-20(s0)
   102f4:	fec42783          	lw	a5,-20(s0)
   102f8:	07f7f793          	andi	a5,a5,127
   102fc:	00078513          	mv	a0,a5
   10300:	01c12403          	lw	s0,28(sp)
   10304:	02010113          	addi	sp,sp,32
   10308:	00008067          	ret

0001030c <message_info_set_msgLength>:
   1030c:	fe010113          	addi	sp,sp,-32
   10310:	00112e23          	sw	ra,28(sp)
   10314:	00812c23          	sw	s0,24(sp)
   10318:	02010413          	addi	s0,sp,32
   1031c:	fea42623          	sw	a0,-20(s0)
   10320:	feb42423          	sw	a1,-24(s0)
   10324:	fe842783          	lw	a5,-24(s0)
   10328:	f807f793          	andi	a5,a5,-128
   1032c:	02078263          	beqz	a5,10350 <message_info_set_msgLength+0x44>
   10330:	0002a7b7          	lui	a5,0x2a
   10334:	62078693          	addi	a3,a5,1568 # 2a620 <__FUNCTION__.1522>
   10338:	04c00613          	li	a2,76
   1033c:	000277b7          	lui	a5,0x27
   10340:	d4c78593          	addi	a1,a5,-692 # 26d4c <halt_message+0xc>
   10344:	000277b7          	lui	a5,0x27
   10348:	e0c78513          	addi	a0,a5,-500 # 26e0c <halt_message+0xcc>
   1034c:	790070ef          	jal	17adc <_assert_fail>
   10350:	fec42783          	lw	a5,-20(s0)
   10354:	f807f793          	andi	a5,a5,-128
   10358:	fef42623          	sw	a5,-20(s0)
   1035c:	fec42703          	lw	a4,-20(s0)
   10360:	fe842783          	lw	a5,-24(s0)
   10364:	07f7f793          	andi	a5,a5,127
   10368:	00f767b3          	or	a5,a4,a5
   1036c:	fef42623          	sw	a5,-20(s0)
   10370:	fec42783          	lw	a5,-20(s0)
   10374:	00078513          	mv	a0,a5
   10378:	01c12083          	lw	ra,28(sp)
   1037c:	01812403          	lw	s0,24(sp)
   10380:	02010113          	addi	sp,sp,32
   10384:	00008067          	ret

00010388 <cap_rights_new>:
   10388:	fd010113          	addi	sp,sp,-48
   1038c:	02112623          	sw	ra,44(sp)
   10390:	02812423          	sw	s0,40(sp)
   10394:	03010413          	addi	s0,sp,48
   10398:	fca42e23          	sw	a0,-36(s0)
   1039c:	fcb42c23          	sw	a1,-40(s0)
   103a0:	fcc42a23          	sw	a2,-44(s0)
   103a4:	fe042623          	sw	zero,-20(s0)
   103a8:	fdc42783          	lw	a5,-36(s0)
   103ac:	ffe7f793          	andi	a5,a5,-2
   103b0:	02078263          	beqz	a5,103d4 <cap_rights_new+0x4c>
   103b4:	0002b7b7          	lui	a5,0x2b
   103b8:	d9478693          	addi	a3,a5,-620 # 2ad94 <__FUNCTION__.1532>
   103bc:	05e00613          	li	a2,94
   103c0:	000277b7          	lui	a5,0x27
   103c4:	d4c78593          	addi	a1,a5,-692 # 26d4c <halt_message+0xc>
   103c8:	000277b7          	lui	a5,0x27
   103cc:	e2478513          	addi	a0,a5,-476 # 26e24 <halt_message+0xe4>
   103d0:	70c070ef          	jal	17adc <_assert_fail>
   103d4:	fec42703          	lw	a4,-20(s0)
   103d8:	fdc42783          	lw	a5,-36(s0)
   103dc:	0017f793          	andi	a5,a5,1
   103e0:	00279793          	slli	a5,a5,0x2
   103e4:	00f767b3          	or	a5,a4,a5
   103e8:	fef42623          	sw	a5,-20(s0)
   103ec:	fd842783          	lw	a5,-40(s0)
   103f0:	ffe7f793          	andi	a5,a5,-2
   103f4:	02078263          	beqz	a5,10418 <cap_rights_new+0x90>
   103f8:	0002b7b7          	lui	a5,0x2b
   103fc:	d9478693          	addi	a3,a5,-620 # 2ad94 <__FUNCTION__.1532>
   10400:	06100613          	li	a2,97
   10404:	000277b7          	lui	a5,0x27
   10408:	d4c78593          	addi	a1,a5,-692 # 26d4c <halt_message+0xc>
   1040c:	000277b7          	lui	a5,0x27
   10410:	e4078513          	addi	a0,a5,-448 # 26e40 <halt_message+0x100>
   10414:	6c8070ef          	jal	17adc <_assert_fail>
   10418:	fec42703          	lw	a4,-20(s0)
   1041c:	fd842783          	lw	a5,-40(s0)
   10420:	0017f793          	andi	a5,a5,1
   10424:	00179793          	slli	a5,a5,0x1
   10428:	00f767b3          	or	a5,a4,a5
   1042c:	fef42623          	sw	a5,-20(s0)
   10430:	fd442783          	lw	a5,-44(s0)
   10434:	ffe7f793          	andi	a5,a5,-2
   10438:	02078263          	beqz	a5,1045c <cap_rights_new+0xd4>
   1043c:	0002b7b7          	lui	a5,0x2b
   10440:	d9478693          	addi	a3,a5,-620 # 2ad94 <__FUNCTION__.1532>
   10444:	06400613          	li	a2,100
   10448:	000277b7          	lui	a5,0x27
   1044c:	d4c78593          	addi	a1,a5,-692 # 26d4c <halt_message+0xc>
   10450:	000277b7          	lui	a5,0x27
   10454:	e5c78513          	addi	a0,a5,-420 # 26e5c <halt_message+0x11c>
   10458:	684070ef          	jal	17adc <_assert_fail>
   1045c:	fec42703          	lw	a4,-20(s0)
   10460:	fd442783          	lw	a5,-44(s0)
   10464:	0017f793          	andi	a5,a5,1
   10468:	00f767b3          	or	a5,a4,a5
   1046c:	fef42623          	sw	a5,-20(s0)
   10470:	fec42783          	lw	a5,-20(s0)
   10474:	00078513          	mv	a0,a5
   10478:	02c12083          	lw	ra,44(sp)
   1047c:	02812403          	lw	s0,40(sp)
   10480:	03010113          	addi	sp,sp,48
   10484:	00008067          	ret

00010488 <cap_rights_get_capAllowGrant>:
   10488:	fe010113          	addi	sp,sp,-32
   1048c:	00812e23          	sw	s0,28(sp)
   10490:	02010413          	addi	s0,sp,32
   10494:	fea42623          	sw	a0,-20(s0)
   10498:	fec42783          	lw	a5,-20(s0)
   1049c:	0047f793          	andi	a5,a5,4
   104a0:	0027d793          	srli	a5,a5,0x2
   104a4:	00078513          	mv	a0,a5
   104a8:	01c12403          	lw	s0,28(sp)
   104ac:	02010113          	addi	sp,sp,32
   104b0:	00008067          	ret

000104b4 <cap_rights_get_capAllowRead>:
   104b4:	fe010113          	addi	sp,sp,-32
   104b8:	00812e23          	sw	s0,28(sp)
   104bc:	02010413          	addi	s0,sp,32
   104c0:	fea42623          	sw	a0,-20(s0)
   104c4:	fec42783          	lw	a5,-20(s0)
   104c8:	0027f793          	andi	a5,a5,2
   104cc:	0017d793          	srli	a5,a5,0x1
   104d0:	00078513          	mv	a0,a5
   104d4:	01c12403          	lw	s0,28(sp)
   104d8:	02010113          	addi	sp,sp,32
   104dc:	00008067          	ret

000104e0 <cap_rights_get_capAllowWrite>:
   104e0:	fe010113          	addi	sp,sp,-32
   104e4:	00812e23          	sw	s0,28(sp)
   104e8:	02010413          	addi	s0,sp,32
   104ec:	fea42623          	sw	a0,-20(s0)
   104f0:	fec42783          	lw	a5,-20(s0)
   104f4:	0017f793          	andi	a5,a5,1
   104f8:	00078513          	mv	a0,a5
   104fc:	01c12403          	lw	s0,28(sp)
   10500:	02010113          	addi	sp,sp,32
   10504:	00008067          	ret

00010508 <rightsFromWord>:
   10508:	fd010113          	addi	sp,sp,-48
   1050c:	02812623          	sw	s0,44(sp)
   10510:	03010413          	addi	s0,sp,48
   10514:	fca42e23          	sw	a0,-36(s0)
   10518:	fdc42783          	lw	a5,-36(s0)
   1051c:	fef42623          	sw	a5,-20(s0)
   10520:	fec42783          	lw	a5,-20(s0)
   10524:	00078513          	mv	a0,a5
   10528:	02c12403          	lw	s0,44(sp)
   1052c:	03010113          	addi	sp,sp,48
   10530:	00008067          	ret

00010534 <capTransferFromWords>:
   10534:	fd010113          	addi	sp,sp,-48
   10538:	02812623          	sw	s0,44(sp)
   1053c:	03010413          	addi	s0,sp,48
   10540:	fca42e23          	sw	a0,-36(s0)
   10544:	fcb42c23          	sw	a1,-40(s0)
   10548:	fd842783          	lw	a5,-40(s0)
   1054c:	0007a783          	lw	a5,0(a5)
   10550:	fef42223          	sw	a5,-28(s0)
   10554:	fd842783          	lw	a5,-40(s0)
   10558:	00478793          	addi	a5,a5,4
   1055c:	0007a783          	lw	a5,0(a5)
   10560:	fef42423          	sw	a5,-24(s0)
   10564:	fd842783          	lw	a5,-40(s0)
   10568:	00878793          	addi	a5,a5,8
   1056c:	0007a783          	lw	a5,0(a5)
   10570:	fef42623          	sw	a5,-20(s0)
   10574:	fdc42783          	lw	a5,-36(s0)
   10578:	fe442703          	lw	a4,-28(s0)
   1057c:	00e7a023          	sw	a4,0(a5)
   10580:	fe842703          	lw	a4,-24(s0)
   10584:	00e7a223          	sw	a4,4(a5)
   10588:	fec42703          	lw	a4,-20(s0)
   1058c:	00e7a423          	sw	a4,8(a5)
   10590:	fdc42503          	lw	a0,-36(s0)
   10594:	02c12403          	lw	s0,44(sp)
   10598:	03010113          	addi	sp,sp,48
   1059c:	00008067          	ret

000105a0 <messageInfoFromWord>:
   105a0:	fd010113          	addi	sp,sp,-48
   105a4:	02112623          	sw	ra,44(sp)
   105a8:	02812423          	sw	s0,40(sp)
   105ac:	03010413          	addi	s0,sp,48
   105b0:	fca42e23          	sw	a0,-36(s0)
   105b4:	fdc42783          	lw	a5,-36(s0)
   105b8:	fef42423          	sw	a5,-24(s0)
   105bc:	fe842503          	lw	a0,-24(s0)
   105c0:	d25ff0ef          	jal	102e4 <message_info_get_msgLength>
   105c4:	fea42623          	sw	a0,-20(s0)
   105c8:	fec42703          	lw	a4,-20(s0)
   105cc:	07800793          	li	a5,120
   105d0:	00e7fc63          	bleu	a4,a5,105e8 <messageInfoFromWord+0x48>
   105d4:	07800593          	li	a1,120
   105d8:	fe842503          	lw	a0,-24(s0)
   105dc:	d31ff0ef          	jal	1030c <message_info_set_msgLength>
   105e0:	00050793          	mv	a5,a0
   105e4:	fef42423          	sw	a5,-24(s0)
   105e8:	fe842783          	lw	a5,-24(s0)
   105ec:	00078513          	mv	a0,a5
   105f0:	02c12083          	lw	ra,44(sp)
   105f4:	02812403          	lw	s0,40(sp)
   105f8:	03010113          	addi	sp,sp,48
   105fc:	00008067          	ret

00010600 <wordFromMessageInfo>:
   10600:	fe010113          	addi	sp,sp,-32
   10604:	00812e23          	sw	s0,28(sp)
   10608:	02010413          	addi	s0,sp,32
   1060c:	fea42623          	sw	a0,-20(s0)
   10610:	fec42783          	lw	a5,-20(s0)
   10614:	00078513          	mv	a0,a5
   10618:	01c12403          	lw	s0,28(sp)
   1061c:	02010113          	addi	sp,sp,32
   10620:	00008067          	ret

00010624 <async_endpoint_ptr_get_aepBoundTCB>:
   10624:	fe010113          	addi	sp,sp,-32
   10628:	00812e23          	sw	s0,28(sp)
   1062c:	02010413          	addi	s0,sp,32
   10630:	fea42623          	sw	a0,-20(s0)
   10634:	fec42783          	lw	a5,-20(s0)
   10638:	00c7a783          	lw	a5,12(a5)
   1063c:	ff07f793          	andi	a5,a5,-16
   10640:	00078513          	mv	a0,a5
   10644:	01c12403          	lw	s0,28(sp)
   10648:	02010113          	addi	sp,sp,32
   1064c:	00008067          	ret

00010650 <async_endpoint_ptr_set_aepBoundTCB>:
   10650:	fe010113          	addi	sp,sp,-32
   10654:	00112e23          	sw	ra,28(sp)
   10658:	00812c23          	sw	s0,24(sp)
   1065c:	02010413          	addi	s0,sp,32
   10660:	fea42623          	sw	a0,-20(s0)
   10664:	feb42423          	sw	a1,-24(s0)
   10668:	fe842783          	lw	a5,-24(s0)
   1066c:	00f7f793          	andi	a5,a5,15
   10670:	02078263          	beqz	a5,10694 <async_endpoint_ptr_set_aepBoundTCB+0x44>
   10674:	0002b7b7          	lui	a5,0x2b
   10678:	ea478693          	addi	a3,a5,-348 # 2aea4 <__FUNCTION__.1655>
   1067c:	01a00613          	li	a2,26
   10680:	000277b7          	lui	a5,0x27
   10684:	e7878593          	addi	a1,a5,-392 # 26e78 <halt_message+0x138>
   10688:	000277b7          	lui	a5,0x27
   1068c:	e9878513          	addi	a0,a5,-360 # 26e98 <halt_message+0x158>
   10690:	44c070ef          	jal	17adc <_assert_fail>
   10694:	fec42783          	lw	a5,-20(s0)
   10698:	00c7a783          	lw	a5,12(a5)
   1069c:	00f7f713          	andi	a4,a5,15
   106a0:	fec42783          	lw	a5,-20(s0)
   106a4:	00e7a623          	sw	a4,12(a5)
   106a8:	fec42783          	lw	a5,-20(s0)
   106ac:	00c7a703          	lw	a4,12(a5)
   106b0:	fe842783          	lw	a5,-24(s0)
   106b4:	ff07f793          	andi	a5,a5,-16
   106b8:	00f76733          	or	a4,a4,a5
   106bc:	fec42783          	lw	a5,-20(s0)
   106c0:	00e7a623          	sw	a4,12(a5)
   106c4:	00000013          	nop
   106c8:	01c12083          	lw	ra,28(sp)
   106cc:	01812403          	lw	s0,24(sp)
   106d0:	02010113          	addi	sp,sp,32
   106d4:	00008067          	ret

000106d8 <async_endpoint_ptr_get_aepMsgIdentifier>:
   106d8:	fe010113          	addi	sp,sp,-32
   106dc:	00812e23          	sw	s0,28(sp)
   106e0:	02010413          	addi	s0,sp,32
   106e4:	fea42623          	sw	a0,-20(s0)
   106e8:	fec42783          	lw	a5,-20(s0)
   106ec:	0087a783          	lw	a5,8(a5)
   106f0:	00078513          	mv	a0,a5
   106f4:	01c12403          	lw	s0,28(sp)
   106f8:	02010113          	addi	sp,sp,32
   106fc:	00008067          	ret

00010700 <async_endpoint_ptr_set_aepMsgIdentifier>:
   10700:	fe010113          	addi	sp,sp,-32
   10704:	00812e23          	sw	s0,28(sp)
   10708:	02010413          	addi	s0,sp,32
   1070c:	fea42623          	sw	a0,-20(s0)
   10710:	feb42423          	sw	a1,-24(s0)
   10714:	fec42783          	lw	a5,-20(s0)
   10718:	0007a423          	sw	zero,8(a5)
   1071c:	fec42783          	lw	a5,-20(s0)
   10720:	0087a703          	lw	a4,8(a5)
   10724:	fe842783          	lw	a5,-24(s0)
   10728:	00f76733          	or	a4,a4,a5
   1072c:	fec42783          	lw	a5,-20(s0)
   10730:	00e7a423          	sw	a4,8(a5)
   10734:	00000013          	nop
   10738:	01c12403          	lw	s0,28(sp)
   1073c:	02010113          	addi	sp,sp,32
   10740:	00008067          	ret

00010744 <async_endpoint_ptr_get_aepQueue_head>:
   10744:	fe010113          	addi	sp,sp,-32
   10748:	00812e23          	sw	s0,28(sp)
   1074c:	02010413          	addi	s0,sp,32
   10750:	fea42623          	sw	a0,-20(s0)
   10754:	fec42783          	lw	a5,-20(s0)
   10758:	0047a783          	lw	a5,4(a5)
   1075c:	ff07f793          	andi	a5,a5,-16
   10760:	00078513          	mv	a0,a5
   10764:	01c12403          	lw	s0,28(sp)
   10768:	02010113          	addi	sp,sp,32
   1076c:	00008067          	ret

00010770 <async_endpoint_ptr_set_aepQueue_head>:
   10770:	fe010113          	addi	sp,sp,-32
   10774:	00112e23          	sw	ra,28(sp)
   10778:	00812c23          	sw	s0,24(sp)
   1077c:	02010413          	addi	s0,sp,32
   10780:	fea42623          	sw	a0,-20(s0)
   10784:	feb42423          	sw	a1,-24(s0)
   10788:	fe842783          	lw	a5,-24(s0)
   1078c:	00f7f793          	andi	a5,a5,15
   10790:	02078263          	beqz	a5,107b4 <async_endpoint_ptr_set_aepQueue_head+0x44>
   10794:	0002b7b7          	lui	a5,0x2b
   10798:	df478693          	addi	a3,a5,-524 # 2adf4 <__FUNCTION__.1671>
   1079c:	03400613          	li	a2,52
   107a0:	000277b7          	lui	a5,0x27
   107a4:	e7878593          	addi	a1,a5,-392 # 26e78 <halt_message+0x138>
   107a8:	000277b7          	lui	a5,0x27
   107ac:	e9878513          	addi	a0,a5,-360 # 26e98 <halt_message+0x158>
   107b0:	32c070ef          	jal	17adc <_assert_fail>
   107b4:	fec42783          	lw	a5,-20(s0)
   107b8:	0047a783          	lw	a5,4(a5)
   107bc:	00f7f713          	andi	a4,a5,15
   107c0:	fec42783          	lw	a5,-20(s0)
   107c4:	00e7a223          	sw	a4,4(a5)
   107c8:	fec42783          	lw	a5,-20(s0)
   107cc:	0047a703          	lw	a4,4(a5)
   107d0:	fe842783          	lw	a5,-24(s0)
   107d4:	ff07f793          	andi	a5,a5,-16
   107d8:	00f76733          	or	a4,a4,a5
   107dc:	fec42783          	lw	a5,-20(s0)
   107e0:	00e7a223          	sw	a4,4(a5)
   107e4:	00000013          	nop
   107e8:	01c12083          	lw	ra,28(sp)
   107ec:	01812403          	lw	s0,24(sp)
   107f0:	02010113          	addi	sp,sp,32
   107f4:	00008067          	ret

000107f8 <async_endpoint_ptr_get_aepQueue_tail>:
   107f8:	fe010113          	addi	sp,sp,-32
   107fc:	00812e23          	sw	s0,28(sp)
   10800:	02010413          	addi	s0,sp,32
   10804:	fea42623          	sw	a0,-20(s0)
   10808:	fec42783          	lw	a5,-20(s0)
   1080c:	0007a783          	lw	a5,0(a5)
   10810:	ff07f793          	andi	a5,a5,-16
   10814:	00078513          	mv	a0,a5
   10818:	01c12403          	lw	s0,28(sp)
   1081c:	02010113          	addi	sp,sp,32
   10820:	00008067          	ret

00010824 <async_endpoint_ptr_set_aepQueue_tail>:
   10824:	fe010113          	addi	sp,sp,-32
   10828:	00112e23          	sw	ra,28(sp)
   1082c:	00812c23          	sw	s0,24(sp)
   10830:	02010413          	addi	s0,sp,32
   10834:	fea42623          	sw	a0,-20(s0)
   10838:	feb42423          	sw	a1,-24(s0)
   1083c:	fe842783          	lw	a5,-24(s0)
   10840:	00f7f793          	andi	a5,a5,15
   10844:	02078263          	beqz	a5,10868 <async_endpoint_ptr_set_aepQueue_tail+0x44>
   10848:	0002b7b7          	lui	a5,0x2b
   1084c:	e1c78693          	addi	a3,a5,-484 # 2ae1c <__FUNCTION__.1679>
   10850:	04100613          	li	a2,65
   10854:	000277b7          	lui	a5,0x27
   10858:	e7878593          	addi	a1,a5,-392 # 26e78 <halt_message+0x138>
   1085c:	000277b7          	lui	a5,0x27
   10860:	e9878513          	addi	a0,a5,-360 # 26e98 <halt_message+0x158>
   10864:	278070ef          	jal	17adc <_assert_fail>
   10868:	fec42783          	lw	a5,-20(s0)
   1086c:	0007a783          	lw	a5,0(a5)
   10870:	00f7f713          	andi	a4,a5,15
   10874:	fec42783          	lw	a5,-20(s0)
   10878:	00e7a023          	sw	a4,0(a5)
   1087c:	fec42783          	lw	a5,-20(s0)
   10880:	0007a703          	lw	a4,0(a5)
   10884:	fe842783          	lw	a5,-24(s0)
   10888:	ff07f793          	andi	a5,a5,-16
   1088c:	00f76733          	or	a4,a4,a5
   10890:	fec42783          	lw	a5,-20(s0)
   10894:	00e7a023          	sw	a4,0(a5)
   10898:	00000013          	nop
   1089c:	01c12083          	lw	ra,28(sp)
   108a0:	01812403          	lw	s0,24(sp)
   108a4:	02010113          	addi	sp,sp,32
   108a8:	00008067          	ret

000108ac <async_endpoint_ptr_get_state>:
   108ac:	fe010113          	addi	sp,sp,-32
   108b0:	00812e23          	sw	s0,28(sp)
   108b4:	02010413          	addi	s0,sp,32
   108b8:	fea42623          	sw	a0,-20(s0)
   108bc:	fec42783          	lw	a5,-20(s0)
   108c0:	0007a783          	lw	a5,0(a5)
   108c4:	0037f793          	andi	a5,a5,3
   108c8:	00078513          	mv	a0,a5
   108cc:	01c12403          	lw	s0,28(sp)
   108d0:	02010113          	addi	sp,sp,32
   108d4:	00008067          	ret

000108d8 <async_endpoint_ptr_set_state>:
   108d8:	fe010113          	addi	sp,sp,-32
   108dc:	00112e23          	sw	ra,28(sp)
   108e0:	00812c23          	sw	s0,24(sp)
   108e4:	02010413          	addi	s0,sp,32
   108e8:	fea42623          	sw	a0,-20(s0)
   108ec:	feb42423          	sw	a1,-24(s0)
   108f0:	fe842783          	lw	a5,-24(s0)
   108f4:	ffc7f793          	andi	a5,a5,-4
   108f8:	02078263          	beqz	a5,1091c <async_endpoint_ptr_set_state+0x44>
   108fc:	0002b7b7          	lui	a5,0x2b
   10900:	e4478693          	addi	a3,a5,-444 # 2ae44 <__FUNCTION__.1687>
   10904:	04e00613          	li	a2,78
   10908:	000277b7          	lui	a5,0x27
   1090c:	e7878593          	addi	a1,a5,-392 # 26e78 <halt_message+0x138>
   10910:	000277b7          	lui	a5,0x27
   10914:	eb878513          	addi	a0,a5,-328 # 26eb8 <halt_message+0x178>
   10918:	1c4070ef          	jal	17adc <_assert_fail>
   1091c:	fec42783          	lw	a5,-20(s0)
   10920:	0007a783          	lw	a5,0(a5)
   10924:	ffc7f713          	andi	a4,a5,-4
   10928:	fec42783          	lw	a5,-20(s0)
   1092c:	00e7a023          	sw	a4,0(a5)
   10930:	fec42783          	lw	a5,-20(s0)
   10934:	0007a703          	lw	a4,0(a5)
   10938:	fe842783          	lw	a5,-24(s0)
   1093c:	0037f793          	andi	a5,a5,3
   10940:	00f76733          	or	a4,a4,a5
   10944:	fec42783          	lw	a5,-20(s0)
   10948:	00e7a023          	sw	a4,0(a5)
   1094c:	00000013          	nop
   10950:	01c12083          	lw	ra,28(sp)
   10954:	01812403          	lw	s0,24(sp)
   10958:	02010113          	addi	sp,sp,32
   1095c:	00008067          	ret

00010960 <endpoint_ptr_get_epQueue_head>:
   10960:	fe010113          	addi	sp,sp,-32
   10964:	00812e23          	sw	s0,28(sp)
   10968:	02010413          	addi	s0,sp,32
   1096c:	fea42623          	sw	a0,-20(s0)
   10970:	fec42783          	lw	a5,-20(s0)
   10974:	0047a783          	lw	a5,4(a5)
   10978:	ff07f793          	andi	a5,a5,-16
   1097c:	00078513          	mv	a0,a5
   10980:	01c12403          	lw	s0,28(sp)
   10984:	02010113          	addi	sp,sp,32
   10988:	00008067          	ret

0001098c <endpoint_ptr_set_epQueue_head>:
   1098c:	fe010113          	addi	sp,sp,-32
   10990:	00112e23          	sw	ra,28(sp)
   10994:	00812c23          	sw	s0,24(sp)
   10998:	02010413          	addi	s0,sp,32
   1099c:	fea42623          	sw	a0,-20(s0)
   109a0:	feb42423          	sw	a1,-24(s0)
   109a4:	fe842783          	lw	a5,-24(s0)
   109a8:	00f7f793          	andi	a5,a5,15
   109ac:	02078263          	beqz	a5,109d0 <endpoint_ptr_set_epQueue_head+0x44>
   109b0:	0002b7b7          	lui	a5,0x2b
   109b4:	fdc78693          	addi	a3,a5,-36 # 2afdc <__FUNCTION__.1698>
   109b8:	06000613          	li	a2,96
   109bc:	000277b7          	lui	a5,0x27
   109c0:	e7878593          	addi	a1,a5,-392 # 26e78 <halt_message+0x138>
   109c4:	000277b7          	lui	a5,0x27
   109c8:	e9878513          	addi	a0,a5,-360 # 26e98 <halt_message+0x158>
   109cc:	110070ef          	jal	17adc <_assert_fail>
   109d0:	fec42783          	lw	a5,-20(s0)
   109d4:	0047a783          	lw	a5,4(a5)
   109d8:	00f7f713          	andi	a4,a5,15
   109dc:	fec42783          	lw	a5,-20(s0)
   109e0:	00e7a223          	sw	a4,4(a5)
   109e4:	fec42783          	lw	a5,-20(s0)
   109e8:	0047a703          	lw	a4,4(a5)
   109ec:	fe842783          	lw	a5,-24(s0)
   109f0:	ff07f793          	andi	a5,a5,-16
   109f4:	00f76733          	or	a4,a4,a5
   109f8:	fec42783          	lw	a5,-20(s0)
   109fc:	00e7a223          	sw	a4,4(a5)
   10a00:	00000013          	nop
   10a04:	01c12083          	lw	ra,28(sp)
   10a08:	01812403          	lw	s0,24(sp)
   10a0c:	02010113          	addi	sp,sp,32
   10a10:	00008067          	ret

00010a14 <endpoint_ptr_get_epQueue_tail>:
   10a14:	fe010113          	addi	sp,sp,-32
   10a18:	00812e23          	sw	s0,28(sp)
   10a1c:	02010413          	addi	s0,sp,32
   10a20:	fea42623          	sw	a0,-20(s0)
   10a24:	fec42783          	lw	a5,-20(s0)
   10a28:	0007a783          	lw	a5,0(a5)
   10a2c:	ff07f793          	andi	a5,a5,-16
   10a30:	00078513          	mv	a0,a5
   10a34:	01c12403          	lw	s0,28(sp)
   10a38:	02010113          	addi	sp,sp,32
   10a3c:	00008067          	ret

00010a40 <endpoint_ptr_set_epQueue_tail>:
   10a40:	fe010113          	addi	sp,sp,-32
   10a44:	00112e23          	sw	ra,28(sp)
   10a48:	00812c23          	sw	s0,24(sp)
   10a4c:	02010413          	addi	s0,sp,32
   10a50:	fea42623          	sw	a0,-20(s0)
   10a54:	feb42423          	sw	a1,-24(s0)
   10a58:	fe842783          	lw	a5,-24(s0)
   10a5c:	00f7f793          	andi	a5,a5,15
   10a60:	02078263          	beqz	a5,10a84 <endpoint_ptr_set_epQueue_tail+0x44>
   10a64:	0002b7b7          	lui	a5,0x2b
   10a68:	ffc78693          	addi	a3,a5,-4 # 2affc <__FUNCTION__.1706>
   10a6c:	06d00613          	li	a2,109
   10a70:	000277b7          	lui	a5,0x27
   10a74:	e7878593          	addi	a1,a5,-392 # 26e78 <halt_message+0x138>
   10a78:	000277b7          	lui	a5,0x27
   10a7c:	e9878513          	addi	a0,a5,-360 # 26e98 <halt_message+0x158>
   10a80:	05c070ef          	jal	17adc <_assert_fail>
   10a84:	fec42783          	lw	a5,-20(s0)
   10a88:	0007a783          	lw	a5,0(a5)
   10a8c:	00f7f713          	andi	a4,a5,15
   10a90:	fec42783          	lw	a5,-20(s0)
   10a94:	00e7a023          	sw	a4,0(a5)
   10a98:	fec42783          	lw	a5,-20(s0)
   10a9c:	0007a703          	lw	a4,0(a5)
   10aa0:	fe842783          	lw	a5,-24(s0)
   10aa4:	ff07f793          	andi	a5,a5,-16
   10aa8:	00f76733          	or	a4,a4,a5
   10aac:	fec42783          	lw	a5,-20(s0)
   10ab0:	00e7a023          	sw	a4,0(a5)
   10ab4:	00000013          	nop
   10ab8:	01c12083          	lw	ra,28(sp)
   10abc:	01812403          	lw	s0,24(sp)
   10ac0:	02010113          	addi	sp,sp,32
   10ac4:	00008067          	ret

00010ac8 <endpoint_ptr_get_state>:
   10ac8:	fe010113          	addi	sp,sp,-32
   10acc:	00812e23          	sw	s0,28(sp)
   10ad0:	02010413          	addi	s0,sp,32
   10ad4:	fea42623          	sw	a0,-20(s0)
   10ad8:	fec42783          	lw	a5,-20(s0)
   10adc:	0007a783          	lw	a5,0(a5)
   10ae0:	0037f793          	andi	a5,a5,3
   10ae4:	00078513          	mv	a0,a5
   10ae8:	01c12403          	lw	s0,28(sp)
   10aec:	02010113          	addi	sp,sp,32
   10af0:	00008067          	ret

00010af4 <endpoint_ptr_set_state>:
   10af4:	fe010113          	addi	sp,sp,-32
   10af8:	00112e23          	sw	ra,28(sp)
   10afc:	00812c23          	sw	s0,24(sp)
   10b00:	02010413          	addi	s0,sp,32
   10b04:	fea42623          	sw	a0,-20(s0)
   10b08:	feb42423          	sw	a1,-24(s0)
   10b0c:	fe842783          	lw	a5,-24(s0)
   10b10:	ffc7f793          	andi	a5,a5,-4
   10b14:	02078263          	beqz	a5,10b38 <endpoint_ptr_set_state+0x44>
   10b18:	0002b7b7          	lui	a5,0x2b
   10b1c:	01c78693          	addi	a3,a5,28 # 2b01c <__FUNCTION__.1714>
   10b20:	07a00613          	li	a2,122
   10b24:	000277b7          	lui	a5,0x27
   10b28:	e7878593          	addi	a1,a5,-392 # 26e78 <halt_message+0x138>
   10b2c:	000277b7          	lui	a5,0x27
   10b30:	eb878513          	addi	a0,a5,-328 # 26eb8 <halt_message+0x178>
   10b34:	7a9060ef          	jal	17adc <_assert_fail>
   10b38:	fec42783          	lw	a5,-20(s0)
   10b3c:	0007a783          	lw	a5,0(a5)
   10b40:	ffc7f713          	andi	a4,a5,-4
   10b44:	fec42783          	lw	a5,-20(s0)
   10b48:	00e7a023          	sw	a4,0(a5)
   10b4c:	fec42783          	lw	a5,-20(s0)
   10b50:	0007a703          	lw	a4,0(a5)
   10b54:	fe842783          	lw	a5,-24(s0)
   10b58:	0037f793          	andi	a5,a5,3
   10b5c:	00f76733          	or	a4,a4,a5
   10b60:	fec42783          	lw	a5,-20(s0)
   10b64:	00e7a023          	sw	a4,0(a5)
   10b68:	00000013          	nop
   10b6c:	01c12083          	lw	ra,28(sp)
   10b70:	01812403          	lw	s0,24(sp)
   10b74:	02010113          	addi	sp,sp,32
   10b78:	00008067          	ret

00010b7c <cnode_capdata_get_guard>:
   10b7c:	fe010113          	addi	sp,sp,-32
   10b80:	00812e23          	sw	s0,28(sp)
   10b84:	02010413          	addi	s0,sp,32
   10b88:	fea42623          	sw	a0,-20(s0)
   10b8c:	fec42703          	lw	a4,-20(s0)
   10b90:	040007b7          	lui	a5,0x4000
   10b94:	f0078793          	addi	a5,a5,-256 # 3ffff00 <ki_end+0x3fcaf00>
   10b98:	00f777b3          	and	a5,a4,a5
   10b9c:	0087d793          	srli	a5,a5,0x8
   10ba0:	00078513          	mv	a0,a5
   10ba4:	01c12403          	lw	s0,28(sp)
   10ba8:	02010113          	addi	sp,sp,32
   10bac:	00008067          	ret

00010bb0 <cnode_capdata_get_guardSize>:
   10bb0:	fe010113          	addi	sp,sp,-32
   10bb4:	00812e23          	sw	s0,28(sp)
   10bb8:	02010413          	addi	s0,sp,32
   10bbc:	fea42623          	sw	a0,-20(s0)
   10bc0:	fec42783          	lw	a5,-20(s0)
   10bc4:	0f87f793          	andi	a5,a5,248
   10bc8:	0037d793          	srli	a5,a5,0x3
   10bcc:	00078513          	mv	a0,a5
   10bd0:	01c12403          	lw	s0,28(sp)
   10bd4:	02010113          	addi	sp,sp,32
   10bd8:	00008067          	ret

00010bdc <thread_state_ptr_get_blockingIPCBadge>:
   10bdc:	fe010113          	addi	sp,sp,-32
   10be0:	00812e23          	sw	s0,28(sp)
   10be4:	02010413          	addi	s0,sp,32
   10be8:	fea42623          	sw	a0,-20(s0)
   10bec:	fec42783          	lw	a5,-20(s0)
   10bf0:	0087a783          	lw	a5,8(a5)
   10bf4:	0047d793          	srli	a5,a5,0x4
   10bf8:	00078513          	mv	a0,a5
   10bfc:	01c12403          	lw	s0,28(sp)
   10c00:	02010113          	addi	sp,sp,32
   10c04:	00008067          	ret

00010c08 <thread_state_ptr_set_blockingIPCBadge>:
   10c08:	fe010113          	addi	sp,sp,-32
   10c0c:	00812e23          	sw	s0,28(sp)
   10c10:	02010413          	addi	s0,sp,32
   10c14:	fea42623          	sw	a0,-20(s0)
   10c18:	feb42423          	sw	a1,-24(s0)
   10c1c:	fec42783          	lw	a5,-20(s0)
   10c20:	0087a783          	lw	a5,8(a5)
   10c24:	00f7f713          	andi	a4,a5,15
   10c28:	fec42783          	lw	a5,-20(s0)
   10c2c:	00e7a423          	sw	a4,8(a5)
   10c30:	fec42783          	lw	a5,-20(s0)
   10c34:	0087a703          	lw	a4,8(a5)
   10c38:	fe842783          	lw	a5,-24(s0)
   10c3c:	00479793          	slli	a5,a5,0x4
   10c40:	00f76733          	or	a4,a4,a5
   10c44:	fec42783          	lw	a5,-20(s0)
   10c48:	00e7a423          	sw	a4,8(a5)
   10c4c:	00000013          	nop
   10c50:	01c12403          	lw	s0,28(sp)
   10c54:	02010113          	addi	sp,sp,32
   10c58:	00008067          	ret

00010c5c <thread_state_ptr_get_blockingIPCCanGrant>:
   10c5c:	fe010113          	addi	sp,sp,-32
   10c60:	00812e23          	sw	s0,28(sp)
   10c64:	02010413          	addi	s0,sp,32
   10c68:	fea42623          	sw	a0,-20(s0)
   10c6c:	fec42783          	lw	a5,-20(s0)
   10c70:	0087a783          	lw	a5,8(a5)
   10c74:	0087f793          	andi	a5,a5,8
   10c78:	0037d793          	srli	a5,a5,0x3
   10c7c:	00078513          	mv	a0,a5
   10c80:	01c12403          	lw	s0,28(sp)
   10c84:	02010113          	addi	sp,sp,32
   10c88:	00008067          	ret

00010c8c <thread_state_ptr_set_blockingIPCCanGrant>:
   10c8c:	fe010113          	addi	sp,sp,-32
   10c90:	00112e23          	sw	ra,28(sp)
   10c94:	00812c23          	sw	s0,24(sp)
   10c98:	02010413          	addi	s0,sp,32
   10c9c:	fea42623          	sw	a0,-20(s0)
   10ca0:	feb42423          	sw	a1,-24(s0)
   10ca4:	fe842783          	lw	a5,-24(s0)
   10ca8:	ffe7f793          	andi	a5,a5,-2
   10cac:	02078263          	beqz	a5,10cd0 <thread_state_ptr_set_blockingIPCCanGrant+0x44>
   10cb0:	0002b7b7          	lui	a5,0x2b
   10cb4:	f8878693          	addi	a3,a5,-120 # 2af88 <__FUNCTION__.1745>
   10cb8:	0ad00613          	li	a2,173
   10cbc:	000277b7          	lui	a5,0x27
   10cc0:	e7878593          	addi	a1,a5,-392 # 26e78 <halt_message+0x138>
   10cc4:	000277b7          	lui	a5,0x27
   10cc8:	ed078513          	addi	a0,a5,-304 # 26ed0 <halt_message+0x190>
   10ccc:	611060ef          	jal	17adc <_assert_fail>
   10cd0:	fec42783          	lw	a5,-20(s0)
   10cd4:	0087a783          	lw	a5,8(a5)
   10cd8:	ff77f713          	andi	a4,a5,-9
   10cdc:	fec42783          	lw	a5,-20(s0)
   10ce0:	00e7a423          	sw	a4,8(a5)
   10ce4:	fec42783          	lw	a5,-20(s0)
   10ce8:	0087a703          	lw	a4,8(a5)
   10cec:	fe842783          	lw	a5,-24(s0)
   10cf0:	00379793          	slli	a5,a5,0x3
   10cf4:	0087f793          	andi	a5,a5,8
   10cf8:	00f76733          	or	a4,a4,a5
   10cfc:	fec42783          	lw	a5,-20(s0)
   10d00:	00e7a423          	sw	a4,8(a5)
   10d04:	00000013          	nop
   10d08:	01c12083          	lw	ra,28(sp)
   10d0c:	01812403          	lw	s0,24(sp)
   10d10:	02010113          	addi	sp,sp,32
   10d14:	00008067          	ret

00010d18 <thread_state_ptr_get_blockingIPCIsCall>:
   10d18:	fe010113          	addi	sp,sp,-32
   10d1c:	00812e23          	sw	s0,28(sp)
   10d20:	02010413          	addi	s0,sp,32
   10d24:	fea42623          	sw	a0,-20(s0)
   10d28:	fec42783          	lw	a5,-20(s0)
   10d2c:	0087a783          	lw	a5,8(a5)
   10d30:	0047f793          	andi	a5,a5,4
   10d34:	0027d793          	srli	a5,a5,0x2
   10d38:	00078513          	mv	a0,a5
   10d3c:	01c12403          	lw	s0,28(sp)
   10d40:	02010113          	addi	sp,sp,32
   10d44:	00008067          	ret

00010d48 <thread_state_ptr_set_blockingIPCIsCall>:
   10d48:	fe010113          	addi	sp,sp,-32
   10d4c:	00112e23          	sw	ra,28(sp)
   10d50:	00812c23          	sw	s0,24(sp)
   10d54:	02010413          	addi	s0,sp,32
   10d58:	fea42623          	sw	a0,-20(s0)
   10d5c:	feb42423          	sw	a1,-24(s0)
   10d60:	fe842783          	lw	a5,-24(s0)
   10d64:	ffe7f793          	andi	a5,a5,-2
   10d68:	02078263          	beqz	a5,10d8c <thread_state_ptr_set_blockingIPCIsCall+0x44>
   10d6c:	0002b7b7          	lui	a5,0x2b
   10d70:	fb478693          	addi	a3,a5,-76 # 2afb4 <__FUNCTION__.1753>
   10d74:	0ba00613          	li	a2,186
   10d78:	000277b7          	lui	a5,0x27
   10d7c:	e7878593          	addi	a1,a5,-392 # 26e78 <halt_message+0x138>
   10d80:	000277b7          	lui	a5,0x27
   10d84:	ee878513          	addi	a0,a5,-280 # 26ee8 <halt_message+0x1a8>
   10d88:	555060ef          	jal	17adc <_assert_fail>
   10d8c:	fec42783          	lw	a5,-20(s0)
   10d90:	0087a783          	lw	a5,8(a5)
   10d94:	ffb7f713          	andi	a4,a5,-5
   10d98:	fec42783          	lw	a5,-20(s0)
   10d9c:	00e7a423          	sw	a4,8(a5)
   10da0:	fec42783          	lw	a5,-20(s0)
   10da4:	0087a703          	lw	a4,8(a5)
   10da8:	fe842783          	lw	a5,-24(s0)
   10dac:	00279793          	slli	a5,a5,0x2
   10db0:	0047f793          	andi	a5,a5,4
   10db4:	00f76733          	or	a4,a4,a5
   10db8:	fec42783          	lw	a5,-20(s0)
   10dbc:	00e7a423          	sw	a4,8(a5)
   10dc0:	00000013          	nop
   10dc4:	01c12083          	lw	ra,28(sp)
   10dc8:	01812403          	lw	s0,24(sp)
   10dcc:	02010113          	addi	sp,sp,32
   10dd0:	00008067          	ret

00010dd4 <thread_state_get_blockingIPCDiminishCaps>:
   10dd4:	ff010113          	addi	sp,sp,-16
   10dd8:	00812623          	sw	s0,12(sp)
   10ddc:	00912423          	sw	s1,8(sp)
   10de0:	01010413          	addi	s0,sp,16
   10de4:	00050493          	mv	s1,a0
   10de8:	0084a783          	lw	a5,8(s1)
   10dec:	0017f793          	andi	a5,a5,1
   10df0:	00078513          	mv	a0,a5
   10df4:	00c12403          	lw	s0,12(sp)
   10df8:	00812483          	lw	s1,8(sp)
   10dfc:	01010113          	addi	sp,sp,16
   10e00:	00008067          	ret

00010e04 <thread_state_ptr_set_blockingIPCDiminishCaps>:
   10e04:	fe010113          	addi	sp,sp,-32
   10e08:	00112e23          	sw	ra,28(sp)
   10e0c:	00812c23          	sw	s0,24(sp)
   10e10:	02010413          	addi	s0,sp,32
   10e14:	fea42623          	sw	a0,-20(s0)
   10e18:	feb42423          	sw	a1,-24(s0)
   10e1c:	fe842783          	lw	a5,-24(s0)
   10e20:	ffe7f793          	andi	a5,a5,-2
   10e24:	02078263          	beqz	a5,10e48 <thread_state_ptr_set_blockingIPCDiminishCaps+0x44>
   10e28:	0002b7b7          	lui	a5,0x2b
   10e2c:	03478693          	addi	a3,a5,52 # 2b034 <__FUNCTION__.1761>
   10e30:	0c700613          	li	a2,199
   10e34:	000277b7          	lui	a5,0x27
   10e38:	e7878593          	addi	a1,a5,-392 # 26e78 <halt_message+0x138>
   10e3c:	000277b7          	lui	a5,0x27
   10e40:	f0078513          	addi	a0,a5,-256 # 26f00 <halt_message+0x1c0>
   10e44:	499060ef          	jal	17adc <_assert_fail>
   10e48:	fec42783          	lw	a5,-20(s0)
   10e4c:	0087a783          	lw	a5,8(a5)
   10e50:	ffe7f713          	andi	a4,a5,-2
   10e54:	fec42783          	lw	a5,-20(s0)
   10e58:	00e7a423          	sw	a4,8(a5)
   10e5c:	fec42783          	lw	a5,-20(s0)
   10e60:	0087a703          	lw	a4,8(a5)
   10e64:	fe842783          	lw	a5,-24(s0)
   10e68:	0017f793          	andi	a5,a5,1
   10e6c:	00f76733          	or	a4,a4,a5
   10e70:	fec42783          	lw	a5,-20(s0)
   10e74:	00e7a423          	sw	a4,8(a5)
   10e78:	00000013          	nop
   10e7c:	01c12083          	lw	ra,28(sp)
   10e80:	01812403          	lw	s0,24(sp)
   10e84:	02010113          	addi	sp,sp,32
   10e88:	00008067          	ret

00010e8c <thread_state_get_tcbQueued>:
   10e8c:	ff010113          	addi	sp,sp,-16
   10e90:	00812623          	sw	s0,12(sp)
   10e94:	00912423          	sw	s1,8(sp)
   10e98:	01010413          	addi	s0,sp,16
   10e9c:	00050493          	mv	s1,a0
   10ea0:	0044a783          	lw	a5,4(s1)
   10ea4:	0017f793          	andi	a5,a5,1
   10ea8:	00078513          	mv	a0,a5
   10eac:	00c12403          	lw	s0,12(sp)
   10eb0:	00812483          	lw	s1,8(sp)
   10eb4:	01010113          	addi	sp,sp,16
   10eb8:	00008067          	ret

00010ebc <thread_state_ptr_set_tcbQueued>:
   10ebc:	fe010113          	addi	sp,sp,-32
   10ec0:	00112e23          	sw	ra,28(sp)
   10ec4:	00812c23          	sw	s0,24(sp)
   10ec8:	02010413          	addi	s0,sp,32
   10ecc:	fea42623          	sw	a0,-20(s0)
   10ed0:	feb42423          	sw	a1,-24(s0)
   10ed4:	fe842783          	lw	a5,-24(s0)
   10ed8:	ffe7f793          	andi	a5,a5,-2
   10edc:	02078263          	beqz	a5,10f00 <thread_state_ptr_set_tcbQueued+0x44>
   10ee0:	0002b7b7          	lui	a5,0x2b
   10ee4:	30878693          	addi	a3,a5,776 # 2b308 <__FUNCTION__.1769>
   10ee8:	0d400613          	li	a2,212
   10eec:	000277b7          	lui	a5,0x27
   10ef0:	e7878593          	addi	a1,a5,-392 # 26e78 <halt_message+0x138>
   10ef4:	000277b7          	lui	a5,0x27
   10ef8:	f0078513          	addi	a0,a5,-256 # 26f00 <halt_message+0x1c0>
   10efc:	3e1060ef          	jal	17adc <_assert_fail>
   10f00:	fec42783          	lw	a5,-20(s0)
   10f04:	0047a783          	lw	a5,4(a5)
   10f08:	ffe7f713          	andi	a4,a5,-2
   10f0c:	fec42783          	lw	a5,-20(s0)
   10f10:	00e7a223          	sw	a4,4(a5)
   10f14:	fec42783          	lw	a5,-20(s0)
   10f18:	0047a703          	lw	a4,4(a5)
   10f1c:	fe842783          	lw	a5,-24(s0)
   10f20:	0017f793          	andi	a5,a5,1
   10f24:	00f76733          	or	a4,a4,a5
   10f28:	fec42783          	lw	a5,-20(s0)
   10f2c:	00e7a223          	sw	a4,4(a5)
   10f30:	00000013          	nop
   10f34:	01c12083          	lw	ra,28(sp)
   10f38:	01812403          	lw	s0,24(sp)
   10f3c:	02010113          	addi	sp,sp,32
   10f40:	00008067          	ret

00010f44 <thread_state_ptr_get_blockingIPCEndpoint>:
   10f44:	fe010113          	addi	sp,sp,-32
   10f48:	00812e23          	sw	s0,28(sp)
   10f4c:	02010413          	addi	s0,sp,32
   10f50:	fea42623          	sw	a0,-20(s0)
   10f54:	fec42783          	lw	a5,-20(s0)
   10f58:	0007a783          	lw	a5,0(a5)
   10f5c:	ff07f793          	andi	a5,a5,-16
   10f60:	00078513          	mv	a0,a5
   10f64:	01c12403          	lw	s0,28(sp)
   10f68:	02010113          	addi	sp,sp,32
   10f6c:	00008067          	ret

00010f70 <thread_state_ptr_set_blockingIPCEndpoint>:
   10f70:	fe010113          	addi	sp,sp,-32
   10f74:	00112e23          	sw	ra,28(sp)
   10f78:	00812c23          	sw	s0,24(sp)
   10f7c:	02010413          	addi	s0,sp,32
   10f80:	fea42623          	sw	a0,-20(s0)
   10f84:	feb42423          	sw	a1,-24(s0)
   10f88:	fe842783          	lw	a5,-24(s0)
   10f8c:	00f7f793          	andi	a5,a5,15
   10f90:	02078263          	beqz	a5,10fb4 <thread_state_ptr_set_blockingIPCEndpoint+0x44>
   10f94:	0002b7b7          	lui	a5,0x2b
   10f98:	e6478693          	addi	a3,a5,-412 # 2ae64 <__FUNCTION__.1777>
   10f9c:	0e100613          	li	a2,225
   10fa0:	000277b7          	lui	a5,0x27
   10fa4:	e7878593          	addi	a1,a5,-392 # 26e78 <halt_message+0x138>
   10fa8:	000277b7          	lui	a5,0x27
   10fac:	e9878513          	addi	a0,a5,-360 # 26e98 <halt_message+0x158>
   10fb0:	32d060ef          	jal	17adc <_assert_fail>
   10fb4:	fec42783          	lw	a5,-20(s0)
   10fb8:	0007a783          	lw	a5,0(a5)
   10fbc:	00f7f713          	andi	a4,a5,15
   10fc0:	fec42783          	lw	a5,-20(s0)
   10fc4:	00e7a023          	sw	a4,0(a5)
   10fc8:	fec42783          	lw	a5,-20(s0)
   10fcc:	0007a703          	lw	a4,0(a5)
   10fd0:	fe842783          	lw	a5,-24(s0)
   10fd4:	ff07f793          	andi	a5,a5,-16
   10fd8:	00f76733          	or	a4,a4,a5
   10fdc:	fec42783          	lw	a5,-20(s0)
   10fe0:	00e7a023          	sw	a4,0(a5)
   10fe4:	00000013          	nop
   10fe8:	01c12083          	lw	ra,28(sp)
   10fec:	01812403          	lw	s0,24(sp)
   10ff0:	02010113          	addi	sp,sp,32
   10ff4:	00008067          	ret

00010ff8 <thread_state_get_tsType>:
   10ff8:	ff010113          	addi	sp,sp,-16
   10ffc:	00812623          	sw	s0,12(sp)
   11000:	00912423          	sw	s1,8(sp)
   11004:	01010413          	addi	s0,sp,16
   11008:	00050493          	mv	s1,a0
   1100c:	0004a783          	lw	a5,0(s1)
   11010:	00f7f793          	andi	a5,a5,15
   11014:	00078513          	mv	a0,a5
   11018:	00c12403          	lw	s0,12(sp)
   1101c:	00812483          	lw	s1,8(sp)
   11020:	01010113          	addi	sp,sp,16
   11024:	00008067          	ret

00011028 <thread_state_ptr_get_tsType>:
   11028:	fe010113          	addi	sp,sp,-32
   1102c:	00812e23          	sw	s0,28(sp)
   11030:	02010413          	addi	s0,sp,32
   11034:	fea42623          	sw	a0,-20(s0)
   11038:	fec42783          	lw	a5,-20(s0)
   1103c:	0007a783          	lw	a5,0(a5)
   11040:	00f7f793          	andi	a5,a5,15
   11044:	00078513          	mv	a0,a5
   11048:	01c12403          	lw	s0,28(sp)
   1104c:	02010113          	addi	sp,sp,32
   11050:	00008067          	ret

00011054 <thread_state_ptr_set_tsType>:
   11054:	fe010113          	addi	sp,sp,-32
   11058:	00112e23          	sw	ra,28(sp)
   1105c:	00812c23          	sw	s0,24(sp)
   11060:	02010413          	addi	s0,sp,32
   11064:	fea42623          	sw	a0,-20(s0)
   11068:	feb42423          	sw	a1,-24(s0)
   1106c:	fe842783          	lw	a5,-24(s0)
   11070:	ff07f793          	andi	a5,a5,-16
   11074:	02078263          	beqz	a5,11098 <thread_state_ptr_set_tsType+0x44>
   11078:	0002b7b7          	lui	a5,0x2b
   1107c:	dd878693          	addi	a3,a5,-552 # 2add8 <__FUNCTION__.1788>
   11080:	0f300613          	li	a2,243
   11084:	000277b7          	lui	a5,0x27
   11088:	e7878593          	addi	a1,a5,-392 # 26e78 <halt_message+0x138>
   1108c:	000277b7          	lui	a5,0x27
   11090:	f1878513          	addi	a0,a5,-232 # 26f18 <halt_message+0x1d8>
   11094:	249060ef          	jal	17adc <_assert_fail>
   11098:	fec42783          	lw	a5,-20(s0)
   1109c:	0007a783          	lw	a5,0(a5)
   110a0:	ff07f713          	andi	a4,a5,-16
   110a4:	fec42783          	lw	a5,-20(s0)
   110a8:	00e7a023          	sw	a4,0(a5)
   110ac:	fec42783          	lw	a5,-20(s0)
   110b0:	0007a703          	lw	a4,0(a5)
   110b4:	fe842783          	lw	a5,-24(s0)
   110b8:	00f7f793          	andi	a5,a5,15
   110bc:	00f76733          	or	a4,a4,a5
   110c0:	fec42783          	lw	a5,-20(s0)
   110c4:	00e7a023          	sw	a4,0(a5)
   110c8:	00000013          	nop
   110cc:	01c12083          	lw	ra,28(sp)
   110d0:	01812403          	lw	s0,24(sp)
   110d4:	02010113          	addi	sp,sp,32
   110d8:	00008067          	ret

000110dc <mdb_node_new>:
   110dc:	fd010113          	addi	sp,sp,-48
   110e0:	02112623          	sw	ra,44(sp)
   110e4:	02812423          	sw	s0,40(sp)
   110e8:	03010413          	addi	s0,sp,48
   110ec:	fca42e23          	sw	a0,-36(s0)
   110f0:	fcb42c23          	sw	a1,-40(s0)
   110f4:	fcc42a23          	sw	a2,-44(s0)
   110f8:	fcd42823          	sw	a3,-48(s0)
   110fc:	fe042023          	sw	zero,-32(s0)
   11100:	fe042223          	sw	zero,-28(s0)
   11104:	fdc42703          	lw	a4,-36(s0)
   11108:	f80007b7          	lui	a5,0xf8000
   1110c:	00f777b3          	and	a5,a4,a5
   11110:	02078263          	beqz	a5,11134 <mdb_node_new+0x58>
   11114:	0002b7b7          	lui	a5,0x2b
   11118:	af878693          	addi	a3,a5,-1288 # 2aaf8 <__FUNCTION__.1799>
   1111c:	10500613          	li	a2,261
   11120:	000277b7          	lui	a5,0x27
   11124:	e7878593          	addi	a1,a5,-392 # 26e78 <halt_message+0x138>
   11128:	000277b7          	lui	a5,0x27
   1112c:	f3078513          	addi	a0,a5,-208 # 26f30 <halt_message+0x1f0>
   11130:	1ad060ef          	jal	17adc <_assert_fail>
   11134:	fe442703          	lw	a4,-28(s0)
   11138:	fdc42783          	lw	a5,-36(s0)
   1113c:	00579793          	slli	a5,a5,0x5
   11140:	00f767b3          	or	a5,a4,a5
   11144:	fef42223          	sw	a5,-28(s0)
   11148:	fd842783          	lw	a5,-40(s0)
   1114c:	fe07f793          	andi	a5,a5,-32
   11150:	02078263          	beqz	a5,11174 <mdb_node_new+0x98>
   11154:	0002b7b7          	lui	a5,0x2b
   11158:	af878693          	addi	a3,a5,-1288 # 2aaf8 <__FUNCTION__.1799>
   1115c:	10800613          	li	a2,264
   11160:	000277b7          	lui	a5,0x27
   11164:	e7878593          	addi	a1,a5,-392 # 26e78 <halt_message+0x138>
   11168:	000277b7          	lui	a5,0x27
   1116c:	f5078513          	addi	a0,a5,-176 # 26f50 <halt_message+0x210>
   11170:	16d060ef          	jal	17adc <_assert_fail>
   11174:	fe442703          	lw	a4,-28(s0)
   11178:	fd842783          	lw	a5,-40(s0)
   1117c:	01f7f793          	andi	a5,a5,31
   11180:	00f767b3          	or	a5,a4,a5
   11184:	fef42223          	sw	a5,-28(s0)
   11188:	fd442703          	lw	a4,-44(s0)
   1118c:	f80007b7          	lui	a5,0xf8000
   11190:	00f777b3          	and	a5,a4,a5
   11194:	02078263          	beqz	a5,111b8 <mdb_node_new+0xdc>
   11198:	0002b7b7          	lui	a5,0x2b
   1119c:	af878693          	addi	a3,a5,-1288 # 2aaf8 <__FUNCTION__.1799>
   111a0:	10b00613          	li	a2,267
   111a4:	000277b7          	lui	a5,0x27
   111a8:	e7878593          	addi	a1,a5,-392 # 26e78 <halt_message+0x138>
   111ac:	000277b7          	lui	a5,0x27
   111b0:	f6878513          	addi	a0,a5,-152 # 26f68 <halt_message+0x228>
   111b4:	129060ef          	jal	17adc <_assert_fail>
   111b8:	fe042703          	lw	a4,-32(s0)
   111bc:	fd442783          	lw	a5,-44(s0)
   111c0:	00579793          	slli	a5,a5,0x5
   111c4:	00f767b3          	or	a5,a4,a5
   111c8:	fef42023          	sw	a5,-32(s0)
   111cc:	fd042783          	lw	a5,-48(s0)
   111d0:	fe07f793          	andi	a5,a5,-32
   111d4:	02078263          	beqz	a5,111f8 <mdb_node_new+0x11c>
   111d8:	0002b7b7          	lui	a5,0x2b
   111dc:	af878693          	addi	a3,a5,-1288 # 2aaf8 <__FUNCTION__.1799>
   111e0:	10e00613          	li	a2,270
   111e4:	000277b7          	lui	a5,0x27
   111e8:	e7878593          	addi	a1,a5,-392 # 26e78 <halt_message+0x138>
   111ec:	000277b7          	lui	a5,0x27
   111f0:	f8878513          	addi	a0,a5,-120 # 26f88 <halt_message+0x248>
   111f4:	0e9060ef          	jal	17adc <_assert_fail>
   111f8:	fe042703          	lw	a4,-32(s0)
   111fc:	fd042783          	lw	a5,-48(s0)
   11200:	01f7f793          	andi	a5,a5,31
   11204:	00f767b3          	or	a5,a4,a5
   11208:	fef42023          	sw	a5,-32(s0)
   1120c:	fe042783          	lw	a5,-32(s0)
   11210:	fef42423          	sw	a5,-24(s0)
   11214:	fe442783          	lw	a5,-28(s0)
   11218:	fef42623          	sw	a5,-20(s0)
   1121c:	00000713          	li	a4,0
   11220:	fe842703          	lw	a4,-24(s0)
   11224:	00000793          	li	a5,0
   11228:	fec42783          	lw	a5,-20(s0)
   1122c:	00070813          	mv	a6,a4
   11230:	00078893          	mv	a7,a5
   11234:	00080713          	mv	a4,a6
   11238:	00088793          	mv	a5,a7
   1123c:	00070513          	mv	a0,a4
   11240:	00078593          	mv	a1,a5
   11244:	02c12083          	lw	ra,44(sp)
   11248:	02812403          	lw	s0,40(sp)
   1124c:	03010113          	addi	sp,sp,48
   11250:	00008067          	ret

00011254 <mdb_node_get_cdtRight_>:
   11254:	fe010113          	addi	sp,sp,-32
   11258:	00812e23          	sw	s0,28(sp)
   1125c:	02010413          	addi	s0,sp,32
   11260:	fea42423          	sw	a0,-24(s0)
   11264:	feb42623          	sw	a1,-20(s0)
   11268:	fec42783          	lw	a5,-20(s0)
   1126c:	0057d793          	srli	a5,a5,0x5
   11270:	00078513          	mv	a0,a5
   11274:	01c12403          	lw	s0,28(sp)
   11278:	02010113          	addi	sp,sp,32
   1127c:	00008067          	ret

00011280 <mdb_node_ptr_set_cdtRight_>:
   11280:	fe010113          	addi	sp,sp,-32
   11284:	00812e23          	sw	s0,28(sp)
   11288:	02010413          	addi	s0,sp,32
   1128c:	fea42623          	sw	a0,-20(s0)
   11290:	feb42423          	sw	a1,-24(s0)
   11294:	fec42783          	lw	a5,-20(s0)
   11298:	0047a783          	lw	a5,4(a5)
   1129c:	01f7f713          	andi	a4,a5,31
   112a0:	fec42783          	lw	a5,-20(s0)
   112a4:	00e7a223          	sw	a4,4(a5)
   112a8:	fec42783          	lw	a5,-20(s0)
   112ac:	0047a703          	lw	a4,4(a5)
   112b0:	fe842783          	lw	a5,-24(s0)
   112b4:	00579793          	slli	a5,a5,0x5
   112b8:	00f76733          	or	a4,a4,a5
   112bc:	fec42783          	lw	a5,-20(s0)
   112c0:	00e7a223          	sw	a4,4(a5)
   112c4:	00000013          	nop
   112c8:	01c12403          	lw	s0,28(sp)
   112cc:	02010113          	addi	sp,sp,32
   112d0:	00008067          	ret

000112d4 <mdb_node_get_cdtDepth>:
   112d4:	fe010113          	addi	sp,sp,-32
   112d8:	00812e23          	sw	s0,28(sp)
   112dc:	02010413          	addi	s0,sp,32
   112e0:	fea42423          	sw	a0,-24(s0)
   112e4:	feb42623          	sw	a1,-20(s0)
   112e8:	fec42783          	lw	a5,-20(s0)
   112ec:	01f7f793          	andi	a5,a5,31
   112f0:	00078513          	mv	a0,a5
   112f4:	01c12403          	lw	s0,28(sp)
   112f8:	02010113          	addi	sp,sp,32
   112fc:	00008067          	ret

00011300 <mdb_node_get_cdtLeft_>:
   11300:	fe010113          	addi	sp,sp,-32
   11304:	00812e23          	sw	s0,28(sp)
   11308:	02010413          	addi	s0,sp,32
   1130c:	fea42423          	sw	a0,-24(s0)
   11310:	feb42623          	sw	a1,-20(s0)
   11314:	fe842783          	lw	a5,-24(s0)
   11318:	0057d793          	srli	a5,a5,0x5
   1131c:	00078513          	mv	a0,a5
   11320:	01c12403          	lw	s0,28(sp)
   11324:	02010113          	addi	sp,sp,32
   11328:	00008067          	ret

0001132c <mdb_node_ptr_set_cdtLeft_>:
   1132c:	fe010113          	addi	sp,sp,-32
   11330:	00812e23          	sw	s0,28(sp)
   11334:	02010413          	addi	s0,sp,32
   11338:	fea42623          	sw	a0,-20(s0)
   1133c:	feb42423          	sw	a1,-24(s0)
   11340:	fec42783          	lw	a5,-20(s0)
   11344:	0007a783          	lw	a5,0(a5)
   11348:	01f7f713          	andi	a4,a5,31
   1134c:	fec42783          	lw	a5,-20(s0)
   11350:	00e7a023          	sw	a4,0(a5)
   11354:	fec42783          	lw	a5,-20(s0)
   11358:	0007a703          	lw	a4,0(a5)
   1135c:	fe842783          	lw	a5,-24(s0)
   11360:	00579793          	slli	a5,a5,0x5
   11364:	00f76733          	or	a4,a4,a5
   11368:	fec42783          	lw	a5,-20(s0)
   1136c:	00e7a023          	sw	a4,0(a5)
   11370:	00000013          	nop
   11374:	01c12403          	lw	s0,28(sp)
   11378:	02010113          	addi	sp,sp,32
   1137c:	00008067          	ret

00011380 <mdb_node_get_cdtLevel>:
   11380:	fe010113          	addi	sp,sp,-32
   11384:	00812e23          	sw	s0,28(sp)
   11388:	02010413          	addi	s0,sp,32
   1138c:	fea42423          	sw	a0,-24(s0)
   11390:	feb42623          	sw	a1,-20(s0)
   11394:	fe842783          	lw	a5,-24(s0)
   11398:	01f7f793          	andi	a5,a5,31
   1139c:	00078513          	mv	a0,a5
   113a0:	01c12403          	lw	s0,28(sp)
   113a4:	02010113          	addi	sp,sp,32
   113a8:	00008067          	ret

000113ac <mdb_node_ptr_set_cdtLevel>:
   113ac:	fe010113          	addi	sp,sp,-32
   113b0:	00112e23          	sw	ra,28(sp)
   113b4:	00812c23          	sw	s0,24(sp)
   113b8:	02010413          	addi	s0,sp,32
   113bc:	fea42623          	sw	a0,-20(s0)
   113c0:	feb42423          	sw	a1,-24(s0)
   113c4:	fe842783          	lw	a5,-24(s0)
   113c8:	fe07f793          	andi	a5,a5,-32
   113cc:	02078263          	beqz	a5,113f0 <mdb_node_ptr_set_cdtLevel+0x44>
   113d0:	0002b7b7          	lui	a5,0x2b
   113d4:	b1478693          	addi	a3,a5,-1260 # 2ab14 <__FUNCTION__.1826>
   113d8:	13b00613          	li	a2,315
   113dc:	000277b7          	lui	a5,0x27
   113e0:	e7878593          	addi	a1,a5,-392 # 26e78 <halt_message+0x138>
   113e4:	000277b7          	lui	a5,0x27
   113e8:	fa078513          	addi	a0,a5,-96 # 26fa0 <halt_message+0x260>
   113ec:	6f0060ef          	jal	17adc <_assert_fail>
   113f0:	fec42783          	lw	a5,-20(s0)
   113f4:	0007a783          	lw	a5,0(a5)
   113f8:	fe07f713          	andi	a4,a5,-32
   113fc:	fec42783          	lw	a5,-20(s0)
   11400:	00e7a023          	sw	a4,0(a5)
   11404:	fec42783          	lw	a5,-20(s0)
   11408:	0007a703          	lw	a4,0(a5)
   1140c:	fe842783          	lw	a5,-24(s0)
   11410:	01f7f793          	andi	a5,a5,31
   11414:	00f76733          	or	a4,a4,a5
   11418:	fec42783          	lw	a5,-20(s0)
   1141c:	00e7a023          	sw	a4,0(a5)
   11420:	00000013          	nop
   11424:	01c12083          	lw	ra,28(sp)
   11428:	01812403          	lw	s0,24(sp)
   1142c:	02010113          	addi	sp,sp,32
   11430:	00008067          	ret

00011434 <fault_get_faultType>:
   11434:	fe010113          	addi	sp,sp,-32
   11438:	00812e23          	sw	s0,28(sp)
   1143c:	02010413          	addi	s0,sp,32
   11440:	fea42423          	sw	a0,-24(s0)
   11444:	feb42623          	sw	a1,-20(s0)
   11448:	fe842783          	lw	a5,-24(s0)
   1144c:	0077f793          	andi	a5,a5,7
   11450:	00078513          	mv	a0,a5
   11454:	01c12403          	lw	s0,28(sp)
   11458:	02010113          	addi	sp,sp,32
   1145c:	00008067          	ret

00011460 <fault_ptr_get_faultType>:
   11460:	fe010113          	addi	sp,sp,-32
   11464:	00812e23          	sw	s0,28(sp)
   11468:	02010413          	addi	s0,sp,32
   1146c:	fea42623          	sw	a0,-20(s0)
   11470:	fec42783          	lw	a5,-20(s0)
   11474:	0007a783          	lw	a5,0(a5)
   11478:	0077f793          	andi	a5,a5,7
   1147c:	00078513          	mv	a0,a5
   11480:	01c12403          	lw	s0,28(sp)
   11484:	02010113          	addi	sp,sp,32
   11488:	00008067          	ret

0001148c <fault_null_fault_ptr_new>:
   1148c:	fe010113          	addi	sp,sp,-32
   11490:	00812e23          	sw	s0,28(sp)
   11494:	02010413          	addi	s0,sp,32
   11498:	fea42623          	sw	a0,-20(s0)
   1149c:	fec42783          	lw	a5,-20(s0)
   114a0:	0007a023          	sw	zero,0(a5)
   114a4:	fec42783          	lw	a5,-20(s0)
   114a8:	0007a223          	sw	zero,4(a5)
   114ac:	fec42783          	lw	a5,-20(s0)
   114b0:	0007a703          	lw	a4,0(a5)
   114b4:	fec42783          	lw	a5,-20(s0)
   114b8:	00e7a023          	sw	a4,0(a5)
   114bc:	00000013          	nop
   114c0:	01c12403          	lw	s0,28(sp)
   114c4:	02010113          	addi	sp,sp,32
   114c8:	00008067          	ret

000114cc <fault_cap_fault_new>:
   114cc:	fd010113          	addi	sp,sp,-48
   114d0:	02112623          	sw	ra,44(sp)
   114d4:	02812423          	sw	s0,40(sp)
   114d8:	03010413          	addi	s0,sp,48
   114dc:	fca42e23          	sw	a0,-36(s0)
   114e0:	fcb42c23          	sw	a1,-40(s0)
   114e4:	fe042023          	sw	zero,-32(s0)
   114e8:	fe042223          	sw	zero,-28(s0)
   114ec:	fe442703          	lw	a4,-28(s0)
   114f0:	fdc42783          	lw	a5,-36(s0)
   114f4:	00f767b3          	or	a5,a4,a5
   114f8:	fef42223          	sw	a5,-28(s0)
   114fc:	fd842783          	lw	a5,-40(s0)
   11500:	ffe7f793          	andi	a5,a5,-2
   11504:	02078263          	beqz	a5,11528 <fault_cap_fault_new+0x5c>
   11508:	0002a7b7          	lui	a5,0x2a
   1150c:	63c78693          	addi	a3,a5,1596 # 2a63c <__FUNCTION__.1852>
   11510:	16b00613          	li	a2,363
   11514:	000277b7          	lui	a5,0x27
   11518:	e7878593          	addi	a1,a5,-392 # 26e78 <halt_message+0x138>
   1151c:	000277b7          	lui	a5,0x27
   11520:	fb878513          	addi	a0,a5,-72 # 26fb8 <halt_message+0x278>
   11524:	5b8060ef          	jal	17adc <_assert_fail>
   11528:	fe042703          	lw	a4,-32(s0)
   1152c:	fd842783          	lw	a5,-40(s0)
   11530:	01f79793          	slli	a5,a5,0x1f
   11534:	00f767b3          	or	a5,a4,a5
   11538:	fef42023          	sw	a5,-32(s0)
   1153c:	fe042783          	lw	a5,-32(s0)
   11540:	0017e793          	ori	a5,a5,1
   11544:	fef42023          	sw	a5,-32(s0)
   11548:	fe042783          	lw	a5,-32(s0)
   1154c:	fef42423          	sw	a5,-24(s0)
   11550:	fe442783          	lw	a5,-28(s0)
   11554:	fef42623          	sw	a5,-20(s0)
   11558:	00000713          	li	a4,0
   1155c:	fe842703          	lw	a4,-24(s0)
   11560:	00000793          	li	a5,0
   11564:	fec42783          	lw	a5,-20(s0)
   11568:	00070613          	mv	a2,a4
   1156c:	00078693          	mv	a3,a5
   11570:	00060713          	mv	a4,a2
   11574:	00068793          	mv	a5,a3
   11578:	00070513          	mv	a0,a4
   1157c:	00078593          	mv	a1,a5
   11580:	02c12083          	lw	ra,44(sp)
   11584:	02812403          	lw	s0,40(sp)
   11588:	03010113          	addi	sp,sp,48
   1158c:	00008067          	ret

00011590 <fault_cap_fault_get_address>:
   11590:	fe010113          	addi	sp,sp,-32
   11594:	00112e23          	sw	ra,28(sp)
   11598:	00812c23          	sw	s0,24(sp)
   1159c:	02010413          	addi	s0,sp,32
   115a0:	fea42423          	sw	a0,-24(s0)
   115a4:	feb42623          	sw	a1,-20(s0)
   115a8:	fe842783          	lw	a5,-24(s0)
   115ac:	0077f713          	andi	a4,a5,7
   115b0:	00100793          	li	a5,1
   115b4:	02f70263          	beq	a4,a5,115d8 <fault_cap_fault_get_address+0x48>
   115b8:	0002b7b7          	lui	a5,0x2b
   115bc:	c4078693          	addi	a3,a5,-960 # 2ac40 <__FUNCTION__.1856>
   115c0:	17700613          	li	a2,375
   115c4:	000277b7          	lui	a5,0x27
   115c8:	e7878593          	addi	a1,a5,-392 # 26e78 <halt_message+0x138>
   115cc:	000277b7          	lui	a5,0x27
   115d0:	fd878513          	addi	a0,a5,-40 # 26fd8 <halt_message+0x298>
   115d4:	508060ef          	jal	17adc <_assert_fail>
   115d8:	fec42783          	lw	a5,-20(s0)
   115dc:	00078513          	mv	a0,a5
   115e0:	01c12083          	lw	ra,28(sp)
   115e4:	01812403          	lw	s0,24(sp)
   115e8:	02010113          	addi	sp,sp,32
   115ec:	00008067          	ret

000115f0 <fault_cap_fault_get_inReceivePhase>:
   115f0:	fe010113          	addi	sp,sp,-32
   115f4:	00112e23          	sw	ra,28(sp)
   115f8:	00812c23          	sw	s0,24(sp)
   115fc:	02010413          	addi	s0,sp,32
   11600:	fea42423          	sw	a0,-24(s0)
   11604:	feb42623          	sw	a1,-20(s0)
   11608:	fe842783          	lw	a5,-24(s0)
   1160c:	0077f713          	andi	a4,a5,7
   11610:	00100793          	li	a5,1
   11614:	02f70263          	beq	a4,a5,11638 <fault_cap_fault_get_inReceivePhase+0x48>
   11618:	0002b7b7          	lui	a5,0x2b
   1161c:	c1c78693          	addi	a3,a5,-996 # 2ac1c <__FUNCTION__.1860>
   11620:	17f00613          	li	a2,383
   11624:	000277b7          	lui	a5,0x27
   11628:	e7878593          	addi	a1,a5,-392 # 26e78 <halt_message+0x138>
   1162c:	000277b7          	lui	a5,0x27
   11630:	fd878513          	addi	a0,a5,-40 # 26fd8 <halt_message+0x298>
   11634:	4a8060ef          	jal	17adc <_assert_fail>
   11638:	fe842783          	lw	a5,-24(s0)
   1163c:	01f7d793          	srli	a5,a5,0x1f
   11640:	00078513          	mv	a0,a5
   11644:	01c12083          	lw	ra,28(sp)
   11648:	01812403          	lw	s0,24(sp)
   1164c:	02010113          	addi	sp,sp,32
   11650:	00008067          	ret

00011654 <fault_vm_fault_get_address>:
   11654:	fe010113          	addi	sp,sp,-32
   11658:	00112e23          	sw	ra,28(sp)
   1165c:	00812c23          	sw	s0,24(sp)
   11660:	02010413          	addi	s0,sp,32
   11664:	fea42423          	sw	a0,-24(s0)
   11668:	feb42623          	sw	a1,-20(s0)
   1166c:	fe842783          	lw	a5,-24(s0)
   11670:	0077f713          	andi	a4,a5,7
   11674:	00200793          	li	a5,2
   11678:	02f70263          	beq	a4,a5,1169c <fault_vm_fault_get_address+0x48>
   1167c:	0002b7b7          	lui	a5,0x2b
   11680:	c8078693          	addi	a3,a5,-896 # 2ac80 <__FUNCTION__.1864>
   11684:	18700613          	li	a2,391
   11688:	000277b7          	lui	a5,0x27
   1168c:	e7878593          	addi	a1,a5,-392 # 26e78 <halt_message+0x138>
   11690:	000277b7          	lui	a5,0x27
   11694:	00c78513          	addi	a0,a5,12 # 2700c <halt_message+0x2cc>
   11698:	444060ef          	jal	17adc <_assert_fail>
   1169c:	fec42783          	lw	a5,-20(s0)
   116a0:	00078513          	mv	a0,a5
   116a4:	01c12083          	lw	ra,28(sp)
   116a8:	01812403          	lw	s0,24(sp)
   116ac:	02010113          	addi	sp,sp,32
   116b0:	00008067          	ret

000116b4 <fault_vm_fault_get_FSR>:
   116b4:	fe010113          	addi	sp,sp,-32
   116b8:	00112e23          	sw	ra,28(sp)
   116bc:	00812c23          	sw	s0,24(sp)
   116c0:	02010413          	addi	s0,sp,32
   116c4:	fea42423          	sw	a0,-24(s0)
   116c8:	feb42623          	sw	a1,-20(s0)
   116cc:	fe842783          	lw	a5,-24(s0)
   116d0:	0077f713          	andi	a4,a5,7
   116d4:	00200793          	li	a5,2
   116d8:	02f70263          	beq	a4,a5,116fc <fault_vm_fault_get_FSR+0x48>
   116dc:	0002b7b7          	lui	a5,0x2b
   116e0:	c9c78693          	addi	a3,a5,-868 # 2ac9c <__FUNCTION__.1868>
   116e4:	18f00613          	li	a2,399
   116e8:	000277b7          	lui	a5,0x27
   116ec:	e7878593          	addi	a1,a5,-392 # 26e78 <halt_message+0x138>
   116f0:	000277b7          	lui	a5,0x27
   116f4:	00c78513          	addi	a0,a5,12 # 2700c <halt_message+0x2cc>
   116f8:	3e4060ef          	jal	17adc <_assert_fail>
   116fc:	fe842783          	lw	a5,-24(s0)
   11700:	0127d793          	srli	a5,a5,0x12
   11704:	00078513          	mv	a0,a5
   11708:	01c12083          	lw	ra,28(sp)
   1170c:	01812403          	lw	s0,24(sp)
   11710:	02010113          	addi	sp,sp,32
   11714:	00008067          	ret

00011718 <fault_vm_fault_get_instructionFault>:
   11718:	fe010113          	addi	sp,sp,-32
   1171c:	00112e23          	sw	ra,28(sp)
   11720:	00812c23          	sw	s0,24(sp)
   11724:	02010413          	addi	s0,sp,32
   11728:	fea42423          	sw	a0,-24(s0)
   1172c:	feb42623          	sw	a1,-20(s0)
   11730:	fe842783          	lw	a5,-24(s0)
   11734:	0077f713          	andi	a4,a5,7
   11738:	00200793          	li	a5,2
   1173c:	02f70263          	beq	a4,a5,11760 <fault_vm_fault_get_instructionFault+0x48>
   11740:	0002b7b7          	lui	a5,0x2b
   11744:	c5c78693          	addi	a3,a5,-932 # 2ac5c <__FUNCTION__.1872>
   11748:	19700613          	li	a2,407
   1174c:	000277b7          	lui	a5,0x27
   11750:	e7878593          	addi	a1,a5,-392 # 26e78 <halt_message+0x138>
   11754:	000277b7          	lui	a5,0x27
   11758:	00c78513          	addi	a0,a5,12 # 2700c <halt_message+0x2cc>
   1175c:	380060ef          	jal	17adc <_assert_fail>
   11760:	fe842703          	lw	a4,-24(s0)
   11764:	000207b7          	lui	a5,0x20
   11768:	00f777b3          	and	a5,a4,a5
   1176c:	0117d793          	srli	a5,a5,0x11
   11770:	00078513          	mv	a0,a5
   11774:	01c12083          	lw	ra,28(sp)
   11778:	01812403          	lw	s0,24(sp)
   1177c:	02010113          	addi	sp,sp,32
   11780:	00008067          	ret

00011784 <fault_unknown_syscall_new>:
   11784:	fd010113          	addi	sp,sp,-48
   11788:	02812623          	sw	s0,44(sp)
   1178c:	03010413          	addi	s0,sp,48
   11790:	fca42e23          	sw	a0,-36(s0)
   11794:	fe042023          	sw	zero,-32(s0)
   11798:	fe042223          	sw	zero,-28(s0)
   1179c:	fe442703          	lw	a4,-28(s0)
   117a0:	fdc42783          	lw	a5,-36(s0)
   117a4:	00f767b3          	or	a5,a4,a5
   117a8:	fef42223          	sw	a5,-28(s0)
   117ac:	fe042783          	lw	a5,-32(s0)
   117b0:	0037e793          	ori	a5,a5,3
   117b4:	fef42023          	sw	a5,-32(s0)
   117b8:	fe042783          	lw	a5,-32(s0)
   117bc:	fef42423          	sw	a5,-24(s0)
   117c0:	fe442783          	lw	a5,-28(s0)
   117c4:	fef42623          	sw	a5,-20(s0)
   117c8:	00000713          	li	a4,0
   117cc:	fe842703          	lw	a4,-24(s0)
   117d0:	00000793          	li	a5,0
   117d4:	fec42783          	lw	a5,-20(s0)
   117d8:	00070613          	mv	a2,a4
   117dc:	00078693          	mv	a3,a5
   117e0:	00060713          	mv	a4,a2
   117e4:	00068793          	mv	a5,a3
   117e8:	00070513          	mv	a0,a4
   117ec:	00078593          	mv	a1,a5
   117f0:	02c12403          	lw	s0,44(sp)
   117f4:	03010113          	addi	sp,sp,48
   117f8:	00008067          	ret

000117fc <fault_unknown_syscall_get_syscallNumber>:
   117fc:	fe010113          	addi	sp,sp,-32
   11800:	00112e23          	sw	ra,28(sp)
   11804:	00812c23          	sw	s0,24(sp)
   11808:	02010413          	addi	s0,sp,32
   1180c:	fea42423          	sw	a0,-24(s0)
   11810:	feb42623          	sw	a1,-20(s0)
   11814:	fe842783          	lw	a5,-24(s0)
   11818:	0077f713          	andi	a4,a5,7
   1181c:	00300793          	li	a5,3
   11820:	02f70263          	beq	a4,a5,11844 <fault_unknown_syscall_get_syscallNumber+0x48>
   11824:	0002b7b7          	lui	a5,0x2b
   11828:	cb478693          	addi	a3,a5,-844 # 2acb4 <__FUNCTION__.1881>
   1182c:	1ae00613          	li	a2,430
   11830:	000277b7          	lui	a5,0x27
   11834:	e7878593          	addi	a1,a5,-392 # 26e78 <halt_message+0x138>
   11838:	000277b7          	lui	a5,0x27
   1183c:	03c78513          	addi	a0,a5,60 # 2703c <halt_message+0x2fc>
   11840:	29c060ef          	jal	17adc <_assert_fail>
   11844:	fec42783          	lw	a5,-20(s0)
   11848:	00078513          	mv	a0,a5
   1184c:	01c12083          	lw	ra,28(sp)
   11850:	01812403          	lw	s0,24(sp)
   11854:	02010113          	addi	sp,sp,32
   11858:	00008067          	ret

0001185c <fault_user_exception_new>:
   1185c:	fd010113          	addi	sp,sp,-48
   11860:	02112623          	sw	ra,44(sp)
   11864:	02812423          	sw	s0,40(sp)
   11868:	03010413          	addi	s0,sp,48
   1186c:	fca42e23          	sw	a0,-36(s0)
   11870:	fcb42c23          	sw	a1,-40(s0)
   11874:	fe042023          	sw	zero,-32(s0)
   11878:	fe042223          	sw	zero,-28(s0)
   1187c:	fe442703          	lw	a4,-28(s0)
   11880:	fdc42783          	lw	a5,-36(s0)
   11884:	00f767b3          	or	a5,a4,a5
   11888:	fef42223          	sw	a5,-28(s0)
   1188c:	fd842703          	lw	a4,-40(s0)
   11890:	e00007b7          	lui	a5,0xe0000
   11894:	00f777b3          	and	a5,a4,a5
   11898:	02078263          	beqz	a5,118bc <fault_user_exception_new+0x60>
   1189c:	0002a7b7          	lui	a5,0x2a
   118a0:	5f078693          	addi	a3,a5,1520 # 2a5f0 <__FUNCTION__.1887>
   118a4:	1bc00613          	li	a2,444
   118a8:	000277b7          	lui	a5,0x27
   118ac:	e7878593          	addi	a1,a5,-392 # 26e78 <halt_message+0x138>
   118b0:	000277b7          	lui	a5,0x27
   118b4:	07478513          	addi	a0,a5,116 # 27074 <halt_message+0x334>
   118b8:	224060ef          	jal	17adc <_assert_fail>
   118bc:	fe042703          	lw	a4,-32(s0)
   118c0:	fd842783          	lw	a5,-40(s0)
   118c4:	00379793          	slli	a5,a5,0x3
   118c8:	00f767b3          	or	a5,a4,a5
   118cc:	fef42023          	sw	a5,-32(s0)
   118d0:	fe042783          	lw	a5,-32(s0)
   118d4:	0047e793          	ori	a5,a5,4
   118d8:	fef42023          	sw	a5,-32(s0)
   118dc:	fe042783          	lw	a5,-32(s0)
   118e0:	fef42423          	sw	a5,-24(s0)
   118e4:	fe442783          	lw	a5,-28(s0)
   118e8:	fef42623          	sw	a5,-20(s0)
   118ec:	00000713          	li	a4,0
   118f0:	fe842703          	lw	a4,-24(s0)
   118f4:	00000793          	li	a5,0
   118f8:	fec42783          	lw	a5,-20(s0)
   118fc:	00070613          	mv	a2,a4
   11900:	00078693          	mv	a3,a5
   11904:	00060713          	mv	a4,a2
   11908:	00068793          	mv	a5,a3
   1190c:	00070513          	mv	a0,a4
   11910:	00078593          	mv	a1,a5
   11914:	02c12083          	lw	ra,44(sp)
   11918:	02812403          	lw	s0,40(sp)
   1191c:	03010113          	addi	sp,sp,48
   11920:	00008067          	ret

00011924 <fault_user_exception_get_number>:
   11924:	fe010113          	addi	sp,sp,-32
   11928:	00112e23          	sw	ra,28(sp)
   1192c:	00812c23          	sw	s0,24(sp)
   11930:	02010413          	addi	s0,sp,32
   11934:	fea42423          	sw	a0,-24(s0)
   11938:	feb42623          	sw	a1,-20(s0)
   1193c:	fe842783          	lw	a5,-24(s0)
   11940:	0077f713          	andi	a4,a5,7
   11944:	00400793          	li	a5,4
   11948:	02f70263          	beq	a4,a5,1196c <fault_user_exception_get_number+0x48>
   1194c:	0002b7b7          	lui	a5,0x2b
   11950:	cdc78693          	addi	a3,a5,-804 # 2acdc <__FUNCTION__.1891>
   11954:	1c800613          	li	a2,456
   11958:	000277b7          	lui	a5,0x27
   1195c:	e7878593          	addi	a1,a5,-392 # 26e78 <halt_message+0x138>
   11960:	000277b7          	lui	a5,0x27
   11964:	09078513          	addi	a0,a5,144 # 27090 <halt_message+0x350>
   11968:	174060ef          	jal	17adc <_assert_fail>
   1196c:	fec42783          	lw	a5,-20(s0)
   11970:	00078513          	mv	a0,a5
   11974:	01c12083          	lw	ra,28(sp)
   11978:	01812403          	lw	s0,24(sp)
   1197c:	02010113          	addi	sp,sp,32
   11980:	00008067          	ret

00011984 <fault_user_exception_get_code>:
   11984:	fe010113          	addi	sp,sp,-32
   11988:	00112e23          	sw	ra,28(sp)
   1198c:	00812c23          	sw	s0,24(sp)
   11990:	02010413          	addi	s0,sp,32
   11994:	fea42423          	sw	a0,-24(s0)
   11998:	feb42623          	sw	a1,-20(s0)
   1199c:	fe842783          	lw	a5,-24(s0)
   119a0:	0077f713          	andi	a4,a5,7
   119a4:	00400793          	li	a5,4
   119a8:	02f70263          	beq	a4,a5,119cc <fault_user_exception_get_code+0x48>
   119ac:	0002b7b7          	lui	a5,0x2b
   119b0:	cfc78693          	addi	a3,a5,-772 # 2acfc <__FUNCTION__.1895>
   119b4:	1d000613          	li	a2,464
   119b8:	000277b7          	lui	a5,0x27
   119bc:	e7878593          	addi	a1,a5,-392 # 26e78 <halt_message+0x138>
   119c0:	000277b7          	lui	a5,0x27
   119c4:	09078513          	addi	a0,a5,144 # 27090 <halt_message+0x350>
   119c8:	114060ef          	jal	17adc <_assert_fail>
   119cc:	fe842783          	lw	a5,-24(s0)
   119d0:	0037d793          	srli	a5,a5,0x3
   119d4:	00078513          	mv	a0,a5
   119d8:	01c12083          	lw	ra,28(sp)
   119dc:	01812403          	lw	s0,24(sp)
   119e0:	02010113          	addi	sp,sp,32
   119e4:	00008067          	ret

000119e8 <cap_get_capType>:
   119e8:	fe010113          	addi	sp,sp,-32
   119ec:	00812e23          	sw	s0,28(sp)
   119f0:	02010413          	addi	s0,sp,32
   119f4:	fea42423          	sw	a0,-24(s0)
   119f8:	feb42623          	sw	a1,-20(s0)
   119fc:	fe842783          	lw	a5,-24(s0)
   11a00:	00e7f713          	andi	a4,a5,14
   11a04:	00e00793          	li	a5,14
   11a08:	00f70863          	beq	a4,a5,11a18 <cap_get_capType+0x30>
   11a0c:	fe842783          	lw	a5,-24(s0)
   11a10:	00f7f793          	andi	a5,a5,15
   11a14:	00c0006f          	j	11a20 <cap_get_capType+0x38>
   11a18:	fe842783          	lw	a5,-24(s0)
   11a1c:	0ff7f793          	andi	a5,a5,255
   11a20:	00078513          	mv	a0,a5
   11a24:	01c12403          	lw	s0,28(sp)
   11a28:	02010113          	addi	sp,sp,32
   11a2c:	00008067          	ret

00011a30 <cap_null_cap_new>:
   11a30:	fe010113          	addi	sp,sp,-32
   11a34:	00812e23          	sw	s0,28(sp)
   11a38:	02010413          	addi	s0,sp,32
   11a3c:	fe042023          	sw	zero,-32(s0)
   11a40:	fe042223          	sw	zero,-28(s0)
   11a44:	fe042783          	lw	a5,-32(s0)
   11a48:	fef42023          	sw	a5,-32(s0)
   11a4c:	fe042783          	lw	a5,-32(s0)
   11a50:	fef42423          	sw	a5,-24(s0)
   11a54:	fe442783          	lw	a5,-28(s0)
   11a58:	fef42623          	sw	a5,-20(s0)
   11a5c:	00000713          	li	a4,0
   11a60:	fe842703          	lw	a4,-24(s0)
   11a64:	00000793          	li	a5,0
   11a68:	fec42783          	lw	a5,-20(s0)
   11a6c:	00070613          	mv	a2,a4
   11a70:	00078693          	mv	a3,a5
   11a74:	00060713          	mv	a4,a2
   11a78:	00068793          	mv	a5,a3
   11a7c:	00070513          	mv	a0,a4
   11a80:	00078593          	mv	a1,a5
   11a84:	01c12403          	lw	s0,28(sp)
   11a88:	02010113          	addi	sp,sp,32
   11a8c:	00008067          	ret

00011a90 <cap_untyped_cap_new>:
   11a90:	fd010113          	addi	sp,sp,-48
   11a94:	02112623          	sw	ra,44(sp)
   11a98:	02812423          	sw	s0,40(sp)
   11a9c:	03010413          	addi	s0,sp,48
   11aa0:	fca42e23          	sw	a0,-36(s0)
   11aa4:	fcb42c23          	sw	a1,-40(s0)
   11aa8:	fcc42a23          	sw	a2,-44(s0)
   11aac:	fe042023          	sw	zero,-32(s0)
   11ab0:	fe042223          	sw	zero,-28(s0)
   11ab4:	fdc42783          	lw	a5,-36(s0)
   11ab8:	ffe7f793          	andi	a5,a5,-2
   11abc:	02078263          	beqz	a5,11ae0 <cap_untyped_cap_new+0x50>
   11ac0:	0002b7b7          	lui	a5,0x2b
   11ac4:	8bc78693          	addi	a3,a5,-1860 # 2a8bc <__FUNCTION__.1938>
   11ac8:	21600613          	li	a2,534
   11acc:	000277b7          	lui	a5,0x27
   11ad0:	e7878593          	addi	a1,a5,-392 # 26e78 <halt_message+0x138>
   11ad4:	000277b7          	lui	a5,0x27
   11ad8:	0c878513          	addi	a0,a5,200 # 270c8 <halt_message+0x388>
   11adc:	000060ef          	jal	17adc <_assert_fail>
   11ae0:	fe442703          	lw	a4,-28(s0)
   11ae4:	fdc42783          	lw	a5,-36(s0)
   11ae8:	0017f793          	andi	a5,a5,1
   11aec:	00579793          	slli	a5,a5,0x5
   11af0:	00f767b3          	or	a5,a4,a5
   11af4:	fef42223          	sw	a5,-28(s0)
   11af8:	fd842783          	lw	a5,-40(s0)
   11afc:	fe07f793          	andi	a5,a5,-32
   11b00:	02078263          	beqz	a5,11b24 <cap_untyped_cap_new+0x94>
   11b04:	0002b7b7          	lui	a5,0x2b
   11b08:	8bc78693          	addi	a3,a5,-1860 # 2a8bc <__FUNCTION__.1938>
   11b0c:	21900613          	li	a2,537
   11b10:	000277b7          	lui	a5,0x27
   11b14:	e7878593          	addi	a1,a5,-392 # 26e78 <halt_message+0x138>
   11b18:	000277b7          	lui	a5,0x27
   11b1c:	0e878513          	addi	a0,a5,232 # 270e8 <halt_message+0x3a8>
   11b20:	7bd050ef          	jal	17adc <_assert_fail>
   11b24:	fe442703          	lw	a4,-28(s0)
   11b28:	fd842783          	lw	a5,-40(s0)
   11b2c:	01f7f793          	andi	a5,a5,31
   11b30:	00f767b3          	or	a5,a4,a5
   11b34:	fef42223          	sw	a5,-28(s0)
   11b38:	fd442783          	lw	a5,-44(s0)
   11b3c:	00f7f793          	andi	a5,a5,15
   11b40:	02078263          	beqz	a5,11b64 <cap_untyped_cap_new+0xd4>
   11b44:	0002b7b7          	lui	a5,0x2b
   11b48:	8bc78693          	addi	a3,a5,-1860 # 2a8bc <__FUNCTION__.1938>
   11b4c:	21c00613          	li	a2,540
   11b50:	000277b7          	lui	a5,0x27
   11b54:	e7878593          	addi	a1,a5,-392 # 26e78 <halt_message+0x138>
   11b58:	000277b7          	lui	a5,0x27
   11b5c:	10478513          	addi	a0,a5,260 # 27104 <halt_message+0x3c4>
   11b60:	77d050ef          	jal	17adc <_assert_fail>
   11b64:	fe042703          	lw	a4,-32(s0)
   11b68:	fd442783          	lw	a5,-44(s0)
   11b6c:	ff07f793          	andi	a5,a5,-16
   11b70:	00f767b3          	or	a5,a4,a5
   11b74:	fef42023          	sw	a5,-32(s0)
   11b78:	fe042783          	lw	a5,-32(s0)
   11b7c:	0027e793          	ori	a5,a5,2
   11b80:	fef42023          	sw	a5,-32(s0)
   11b84:	fe042783          	lw	a5,-32(s0)
   11b88:	fef42423          	sw	a5,-24(s0)
   11b8c:	fe442783          	lw	a5,-28(s0)
   11b90:	fef42623          	sw	a5,-20(s0)
   11b94:	00000713          	li	a4,0
   11b98:	fe842703          	lw	a4,-24(s0)
   11b9c:	00000793          	li	a5,0
   11ba0:	fec42783          	lw	a5,-20(s0)
   11ba4:	00070813          	mv	a6,a4
   11ba8:	00078893          	mv	a7,a5
   11bac:	00080713          	mv	a4,a6
   11bb0:	00088793          	mv	a5,a7
   11bb4:	00070513          	mv	a0,a4
   11bb8:	00078593          	mv	a1,a5
   11bbc:	02c12083          	lw	ra,44(sp)
   11bc0:	02812403          	lw	s0,40(sp)
   11bc4:	03010113          	addi	sp,sp,48
   11bc8:	00008067          	ret

00011bcc <cap_untyped_cap_get_capDeviceMemory>:
   11bcc:	fe010113          	addi	sp,sp,-32
   11bd0:	00112e23          	sw	ra,28(sp)
   11bd4:	00812c23          	sw	s0,24(sp)
   11bd8:	02010413          	addi	s0,sp,32
   11bdc:	fea42423          	sw	a0,-24(s0)
   11be0:	feb42623          	sw	a1,-20(s0)
   11be4:	fe842783          	lw	a5,-24(s0)
   11be8:	00f7f713          	andi	a4,a5,15
   11bec:	00200793          	li	a5,2
   11bf0:	02f70263          	beq	a4,a5,11c14 <cap_untyped_cap_get_capDeviceMemory+0x48>
   11bf4:	0002b7b7          	lui	a5,0x2b
   11bf8:	41878693          	addi	a3,a5,1048 # 2b418 <__FUNCTION__.1942>
   11bfc:	22800613          	li	a2,552
   11c00:	000277b7          	lui	a5,0x27
   11c04:	e7878593          	addi	a1,a5,-392 # 26e78 <halt_message+0x138>
   11c08:	000277b7          	lui	a5,0x27
   11c0c:	12078513          	addi	a0,a5,288 # 27120 <halt_message+0x3e0>
   11c10:	6cd050ef          	jal	17adc <_assert_fail>
   11c14:	fec42783          	lw	a5,-20(s0)
   11c18:	0207f793          	andi	a5,a5,32
   11c1c:	0057d793          	srli	a5,a5,0x5
   11c20:	00078513          	mv	a0,a5
   11c24:	01c12083          	lw	ra,28(sp)
   11c28:	01812403          	lw	s0,24(sp)
   11c2c:	02010113          	addi	sp,sp,32
   11c30:	00008067          	ret

00011c34 <cap_untyped_cap_get_capBlockSize>:
   11c34:	fe010113          	addi	sp,sp,-32
   11c38:	00112e23          	sw	ra,28(sp)
   11c3c:	00812c23          	sw	s0,24(sp)
   11c40:	02010413          	addi	s0,sp,32
   11c44:	fea42423          	sw	a0,-24(s0)
   11c48:	feb42623          	sw	a1,-20(s0)
   11c4c:	fe842783          	lw	a5,-24(s0)
   11c50:	00f7f713          	andi	a4,a5,15
   11c54:	00200793          	li	a5,2
   11c58:	02f70263          	beq	a4,a5,11c7c <cap_untyped_cap_get_capBlockSize+0x48>
   11c5c:	0002b7b7          	lui	a5,0x2b
   11c60:	93478693          	addi	a3,a5,-1740 # 2a934 <__FUNCTION__.1946>
   11c64:	23000613          	li	a2,560
   11c68:	000277b7          	lui	a5,0x27
   11c6c:	e7878593          	addi	a1,a5,-392 # 26e78 <halt_message+0x138>
   11c70:	000277b7          	lui	a5,0x27
   11c74:	12078513          	addi	a0,a5,288 # 27120 <halt_message+0x3e0>
   11c78:	665050ef          	jal	17adc <_assert_fail>
   11c7c:	fec42783          	lw	a5,-20(s0)
   11c80:	01f7f793          	andi	a5,a5,31
   11c84:	00078513          	mv	a0,a5
   11c88:	01c12083          	lw	ra,28(sp)
   11c8c:	01812403          	lw	s0,24(sp)
   11c90:	02010113          	addi	sp,sp,32
   11c94:	00008067          	ret

00011c98 <cap_untyped_cap_ptr_get_capBlockSize>:
   11c98:	fe010113          	addi	sp,sp,-32
   11c9c:	00112e23          	sw	ra,28(sp)
   11ca0:	00812c23          	sw	s0,24(sp)
   11ca4:	02010413          	addi	s0,sp,32
   11ca8:	fea42623          	sw	a0,-20(s0)
   11cac:	fec42783          	lw	a5,-20(s0)
   11cb0:	0007a783          	lw	a5,0(a5)
   11cb4:	00f7f713          	andi	a4,a5,15
   11cb8:	00200793          	li	a5,2
   11cbc:	02f70263          	beq	a4,a5,11ce0 <cap_untyped_cap_ptr_get_capBlockSize+0x48>
   11cc0:	0002b7b7          	lui	a5,0x2b
   11cc4:	43c78693          	addi	a3,a5,1084 # 2b43c <__FUNCTION__.1950>
   11cc8:	23800613          	li	a2,568
   11ccc:	000277b7          	lui	a5,0x27
   11cd0:	e7878593          	addi	a1,a5,-392 # 26e78 <halt_message+0x138>
   11cd4:	000277b7          	lui	a5,0x27
   11cd8:	15078513          	addi	a0,a5,336 # 27150 <halt_message+0x410>
   11cdc:	601050ef          	jal	17adc <_assert_fail>
   11ce0:	fec42783          	lw	a5,-20(s0)
   11ce4:	0047a783          	lw	a5,4(a5)
   11ce8:	01f7f793          	andi	a5,a5,31
   11cec:	00078513          	mv	a0,a5
   11cf0:	01c12083          	lw	ra,28(sp)
   11cf4:	01812403          	lw	s0,24(sp)
   11cf8:	02010113          	addi	sp,sp,32
   11cfc:	00008067          	ret

00011d00 <cap_untyped_cap_get_capPtr>:
   11d00:	fe010113          	addi	sp,sp,-32
   11d04:	00112e23          	sw	ra,28(sp)
   11d08:	00812c23          	sw	s0,24(sp)
   11d0c:	02010413          	addi	s0,sp,32
   11d10:	fea42423          	sw	a0,-24(s0)
   11d14:	feb42623          	sw	a1,-20(s0)
   11d18:	fe842783          	lw	a5,-24(s0)
   11d1c:	00f7f713          	andi	a4,a5,15
   11d20:	00200793          	li	a5,2
   11d24:	02f70263          	beq	a4,a5,11d48 <cap_untyped_cap_get_capPtr+0x48>
   11d28:	0002a7b7          	lui	a5,0x2a
   11d2c:	76878693          	addi	a3,a5,1896 # 2a768 <__FUNCTION__.1954>
   11d30:	24000613          	li	a2,576
   11d34:	000277b7          	lui	a5,0x27
   11d38:	e7878593          	addi	a1,a5,-392 # 26e78 <halt_message+0x138>
   11d3c:	000277b7          	lui	a5,0x27
   11d40:	12078513          	addi	a0,a5,288 # 27120 <halt_message+0x3e0>
   11d44:	599050ef          	jal	17adc <_assert_fail>
   11d48:	fe842783          	lw	a5,-24(s0)
   11d4c:	ff07f793          	andi	a5,a5,-16
   11d50:	00078513          	mv	a0,a5
   11d54:	01c12083          	lw	ra,28(sp)
   11d58:	01812403          	lw	s0,24(sp)
   11d5c:	02010113          	addi	sp,sp,32
   11d60:	00008067          	ret

00011d64 <cap_endpoint_cap_new>:
   11d64:	fc010113          	addi	sp,sp,-64
   11d68:	02112e23          	sw	ra,60(sp)
   11d6c:	02812c23          	sw	s0,56(sp)
   11d70:	04010413          	addi	s0,sp,64
   11d74:	fca42e23          	sw	a0,-36(s0)
   11d78:	fcb42c23          	sw	a1,-40(s0)
   11d7c:	fcc42a23          	sw	a2,-44(s0)
   11d80:	fcd42823          	sw	a3,-48(s0)
   11d84:	fce42623          	sw	a4,-52(s0)
   11d88:	fe042023          	sw	zero,-32(s0)
   11d8c:	fe042223          	sw	zero,-28(s0)
   11d90:	fdc42703          	lw	a4,-36(s0)
   11d94:	f00007b7          	lui	a5,0xf0000
   11d98:	00f777b3          	and	a5,a4,a5
   11d9c:	02078263          	beqz	a5,11dc0 <cap_endpoint_cap_new+0x5c>
   11da0:	0002b7b7          	lui	a5,0x2b
   11da4:	2c078693          	addi	a3,a5,704 # 2b2c0 <__FUNCTION__.1963>
   11da8:	24d00613          	li	a2,589
   11dac:	000277b7          	lui	a5,0x27
   11db0:	e7878593          	addi	a1,a5,-392 # 26e78 <halt_message+0x138>
   11db4:	000277b7          	lui	a5,0x27
   11db8:	18478513          	addi	a0,a5,388 # 27184 <halt_message+0x444>
   11dbc:	521050ef          	jal	17adc <_assert_fail>
   11dc0:	fe042703          	lw	a4,-32(s0)
   11dc4:	fdc42783          	lw	a5,-36(s0)
   11dc8:	00479793          	slli	a5,a5,0x4
   11dcc:	00f767b3          	or	a5,a4,a5
   11dd0:	fef42023          	sw	a5,-32(s0)
   11dd4:	fd842783          	lw	a5,-40(s0)
   11dd8:	ffe7f793          	andi	a5,a5,-2
   11ddc:	02078263          	beqz	a5,11e00 <cap_endpoint_cap_new+0x9c>
   11de0:	0002b7b7          	lui	a5,0x2b
   11de4:	2c078693          	addi	a3,a5,704 # 2b2c0 <__FUNCTION__.1963>
   11de8:	25000613          	li	a2,592
   11dec:	000277b7          	lui	a5,0x27
   11df0:	e7878593          	addi	a1,a5,-392 # 26e78 <halt_message+0x138>
   11df4:	000277b7          	lui	a5,0x27
   11df8:	1a478513          	addi	a0,a5,420 # 271a4 <halt_message+0x464>
   11dfc:	4e1050ef          	jal	17adc <_assert_fail>
   11e00:	fe442703          	lw	a4,-28(s0)
   11e04:	fd842783          	lw	a5,-40(s0)
   11e08:	0017f793          	andi	a5,a5,1
   11e0c:	00279793          	slli	a5,a5,0x2
   11e10:	00f767b3          	or	a5,a4,a5
   11e14:	fef42223          	sw	a5,-28(s0)
   11e18:	fd442783          	lw	a5,-44(s0)
   11e1c:	ffe7f793          	andi	a5,a5,-2
   11e20:	02078263          	beqz	a5,11e44 <cap_endpoint_cap_new+0xe0>
   11e24:	0002b7b7          	lui	a5,0x2b
   11e28:	2c078693          	addi	a3,a5,704 # 2b2c0 <__FUNCTION__.1963>
   11e2c:	25300613          	li	a2,595
   11e30:	000277b7          	lui	a5,0x27
   11e34:	e7878593          	addi	a1,a5,-392 # 26e78 <halt_message+0x138>
   11e38:	000277b7          	lui	a5,0x27
   11e3c:	1c078513          	addi	a0,a5,448 # 271c0 <halt_message+0x480>
   11e40:	49d050ef          	jal	17adc <_assert_fail>
   11e44:	fe442703          	lw	a4,-28(s0)
   11e48:	fd442783          	lw	a5,-44(s0)
   11e4c:	0017f793          	andi	a5,a5,1
   11e50:	00f767b3          	or	a5,a4,a5
   11e54:	fef42223          	sw	a5,-28(s0)
   11e58:	fd042783          	lw	a5,-48(s0)
   11e5c:	ffe7f793          	andi	a5,a5,-2
   11e60:	02078263          	beqz	a5,11e84 <cap_endpoint_cap_new+0x120>
   11e64:	0002b7b7          	lui	a5,0x2b
   11e68:	2c078693          	addi	a3,a5,704 # 2b2c0 <__FUNCTION__.1963>
   11e6c:	25600613          	li	a2,598
   11e70:	000277b7          	lui	a5,0x27
   11e74:	e7878593          	addi	a1,a5,-392 # 26e78 <halt_message+0x138>
   11e78:	000277b7          	lui	a5,0x27
   11e7c:	1dc78513          	addi	a0,a5,476 # 271dc <halt_message+0x49c>
   11e80:	45d050ef          	jal	17adc <_assert_fail>
   11e84:	fe442703          	lw	a4,-28(s0)
   11e88:	fd042783          	lw	a5,-48(s0)
   11e8c:	0017f793          	andi	a5,a5,1
   11e90:	00179793          	slli	a5,a5,0x1
   11e94:	00f767b3          	or	a5,a4,a5
   11e98:	fef42223          	sw	a5,-28(s0)
   11e9c:	fcc42783          	lw	a5,-52(s0)
   11ea0:	00f7f793          	andi	a5,a5,15
   11ea4:	02078263          	beqz	a5,11ec8 <cap_endpoint_cap_new+0x164>
   11ea8:	0002b7b7          	lui	a5,0x2b
   11eac:	2c078693          	addi	a3,a5,704 # 2b2c0 <__FUNCTION__.1963>
   11eb0:	25900613          	li	a2,601
   11eb4:	000277b7          	lui	a5,0x27
   11eb8:	e7878593          	addi	a1,a5,-392 # 26e78 <halt_message+0x138>
   11ebc:	000277b7          	lui	a5,0x27
   11ec0:	1f878513          	addi	a0,a5,504 # 271f8 <halt_message+0x4b8>
   11ec4:	419050ef          	jal	17adc <_assert_fail>
   11ec8:	fe442703          	lw	a4,-28(s0)
   11ecc:	fcc42783          	lw	a5,-52(s0)
   11ed0:	ff07f793          	andi	a5,a5,-16
   11ed4:	00f767b3          	or	a5,a4,a5
   11ed8:	fef42223          	sw	a5,-28(s0)
   11edc:	fe042783          	lw	a5,-32(s0)
   11ee0:	0047e793          	ori	a5,a5,4
   11ee4:	fef42023          	sw	a5,-32(s0)
   11ee8:	fe042783          	lw	a5,-32(s0)
   11eec:	fef42423          	sw	a5,-24(s0)
   11ef0:	fe442783          	lw	a5,-28(s0)
   11ef4:	fef42623          	sw	a5,-20(s0)
   11ef8:	00000713          	li	a4,0
   11efc:	fe842703          	lw	a4,-24(s0)
   11f00:	00000793          	li	a5,0
   11f04:	fec42783          	lw	a5,-20(s0)
   11f08:	00070813          	mv	a6,a4
   11f0c:	00078893          	mv	a7,a5
   11f10:	00080713          	mv	a4,a6
   11f14:	00088793          	mv	a5,a7
   11f18:	00070513          	mv	a0,a4
   11f1c:	00078593          	mv	a1,a5
   11f20:	03c12083          	lw	ra,60(sp)
   11f24:	03812403          	lw	s0,56(sp)
   11f28:	04010113          	addi	sp,sp,64
   11f2c:	00008067          	ret

00011f30 <cap_endpoint_cap_get_capEPPtr>:
   11f30:	fe010113          	addi	sp,sp,-32
   11f34:	00112e23          	sw	ra,28(sp)
   11f38:	00812c23          	sw	s0,24(sp)
   11f3c:	02010413          	addi	s0,sp,32
   11f40:	fea42423          	sw	a0,-24(s0)
   11f44:	feb42623          	sw	a1,-20(s0)
   11f48:	fe842783          	lw	a5,-24(s0)
   11f4c:	00f7f713          	andi	a4,a5,15
   11f50:	00400793          	li	a5,4
   11f54:	02f70263          	beq	a4,a5,11f78 <cap_endpoint_cap_get_capEPPtr+0x48>
   11f58:	0002a7b7          	lui	a5,0x2a
   11f5c:	78478693          	addi	a3,a5,1924 # 2a784 <__FUNCTION__.1967>
   11f60:	26500613          	li	a2,613
   11f64:	000277b7          	lui	a5,0x27
   11f68:	e7878593          	addi	a1,a5,-392 # 26e78 <halt_message+0x138>
   11f6c:	000277b7          	lui	a5,0x27
   11f70:	21878513          	addi	a0,a5,536 # 27218 <halt_message+0x4d8>
   11f74:	369050ef          	jal	17adc <_assert_fail>
   11f78:	fec42783          	lw	a5,-20(s0)
   11f7c:	ff07f793          	andi	a5,a5,-16
   11f80:	00078513          	mv	a0,a5
   11f84:	01c12083          	lw	ra,28(sp)
   11f88:	01812403          	lw	s0,24(sp)
   11f8c:	02010113          	addi	sp,sp,32
   11f90:	00008067          	ret

00011f94 <cap_endpoint_cap_get_capCanGrant>:
   11f94:	fe010113          	addi	sp,sp,-32
   11f98:	00112e23          	sw	ra,28(sp)
   11f9c:	00812c23          	sw	s0,24(sp)
   11fa0:	02010413          	addi	s0,sp,32
   11fa4:	fea42423          	sw	a0,-24(s0)
   11fa8:	feb42623          	sw	a1,-20(s0)
   11fac:	fe842783          	lw	a5,-24(s0)
   11fb0:	00f7f713          	andi	a4,a5,15
   11fb4:	00400793          	li	a5,4
   11fb8:	02f70263          	beq	a4,a5,11fdc <cap_endpoint_cap_get_capCanGrant+0x48>
   11fbc:	0002b7b7          	lui	a5,0x2b
   11fc0:	bf878693          	addi	a3,a5,-1032 # 2abf8 <__FUNCTION__.1971>
   11fc4:	26d00613          	li	a2,621
   11fc8:	000277b7          	lui	a5,0x27
   11fcc:	e7878593          	addi	a1,a5,-392 # 26e78 <halt_message+0x138>
   11fd0:	000277b7          	lui	a5,0x27
   11fd4:	21878513          	addi	a0,a5,536 # 27218 <halt_message+0x4d8>
   11fd8:	305050ef          	jal	17adc <_assert_fail>
   11fdc:	fec42783          	lw	a5,-20(s0)
   11fe0:	0047f793          	andi	a5,a5,4
   11fe4:	0027d793          	srli	a5,a5,0x2
   11fe8:	00078513          	mv	a0,a5
   11fec:	01c12083          	lw	ra,28(sp)
   11ff0:	01812403          	lw	s0,24(sp)
   11ff4:	02010113          	addi	sp,sp,32
   11ff8:	00008067          	ret

00011ffc <cap_endpoint_cap_set_capCanGrant>:
   11ffc:	fd010113          	addi	sp,sp,-48
   12000:	02112623          	sw	ra,44(sp)
   12004:	02812423          	sw	s0,40(sp)
   12008:	03010413          	addi	s0,sp,48
   1200c:	fca42c23          	sw	a0,-40(s0)
   12010:	fcb42e23          	sw	a1,-36(s0)
   12014:	fcc42a23          	sw	a2,-44(s0)
   12018:	fd842783          	lw	a5,-40(s0)
   1201c:	00f7f713          	andi	a4,a5,15
   12020:	00400793          	li	a5,4
   12024:	02f70263          	beq	a4,a5,12048 <cap_endpoint_cap_set_capCanGrant+0x4c>
   12028:	0002b7b7          	lui	a5,0x2b
   1202c:	23478693          	addi	a3,a5,564 # 2b234 <__FUNCTION__.1976>
   12030:	27500613          	li	a2,629
   12034:	000277b7          	lui	a5,0x27
   12038:	e7878593          	addi	a1,a5,-392 # 26e78 <halt_message+0x138>
   1203c:	000277b7          	lui	a5,0x27
   12040:	21878513          	addi	a0,a5,536 # 27218 <halt_message+0x4d8>
   12044:	299050ef          	jal	17adc <_assert_fail>
   12048:	fd442783          	lw	a5,-44(s0)
   1204c:	ffe7f793          	andi	a5,a5,-2
   12050:	02078263          	beqz	a5,12074 <cap_endpoint_cap_set_capCanGrant+0x78>
   12054:	0002b7b7          	lui	a5,0x2b
   12058:	23478693          	addi	a3,a5,564 # 2b234 <__FUNCTION__.1976>
   1205c:	27700613          	li	a2,631
   12060:	000277b7          	lui	a5,0x27
   12064:	e7878593          	addi	a1,a5,-392 # 26e78 <halt_message+0x138>
   12068:	000277b7          	lui	a5,0x27
   1206c:	ee878513          	addi	a0,a5,-280 # 26ee8 <halt_message+0x1a8>
   12070:	26d050ef          	jal	17adc <_assert_fail>
   12074:	fdc42783          	lw	a5,-36(s0)
   12078:	ffb7f793          	andi	a5,a5,-5
   1207c:	fcf42e23          	sw	a5,-36(s0)
   12080:	fdc42703          	lw	a4,-36(s0)
   12084:	fd442783          	lw	a5,-44(s0)
   12088:	00279793          	slli	a5,a5,0x2
   1208c:	0047f793          	andi	a5,a5,4
   12090:	00f767b3          	or	a5,a4,a5
   12094:	fcf42e23          	sw	a5,-36(s0)
   12098:	fd842783          	lw	a5,-40(s0)
   1209c:	fef42423          	sw	a5,-24(s0)
   120a0:	fdc42783          	lw	a5,-36(s0)
   120a4:	fef42623          	sw	a5,-20(s0)
   120a8:	00000713          	li	a4,0
   120ac:	fe842703          	lw	a4,-24(s0)
   120b0:	00000793          	li	a5,0
   120b4:	fec42783          	lw	a5,-20(s0)
   120b8:	00070813          	mv	a6,a4
   120bc:	00078893          	mv	a7,a5
   120c0:	00080713          	mv	a4,a6
   120c4:	00088793          	mv	a5,a7
   120c8:	00070513          	mv	a0,a4
   120cc:	00078593          	mv	a1,a5
   120d0:	02c12083          	lw	ra,44(sp)
   120d4:	02812403          	lw	s0,40(sp)
   120d8:	03010113          	addi	sp,sp,48
   120dc:	00008067          	ret

000120e0 <cap_endpoint_cap_get_capCanReceive>:
   120e0:	fe010113          	addi	sp,sp,-32
   120e4:	00112e23          	sw	ra,28(sp)
   120e8:	00812c23          	sw	s0,24(sp)
   120ec:	02010413          	addi	s0,sp,32
   120f0:	fea42423          	sw	a0,-24(s0)
   120f4:	feb42623          	sw	a1,-20(s0)
   120f8:	fe842783          	lw	a5,-24(s0)
   120fc:	00f7f713          	andi	a4,a5,15
   12100:	00400793          	li	a5,4
   12104:	02f70263          	beq	a4,a5,12128 <cap_endpoint_cap_get_capCanReceive+0x48>
   12108:	0002a7b7          	lui	a5,0x2a
   1210c:	6a878693          	addi	a3,a5,1704 # 2a6a8 <__FUNCTION__.1980>
   12110:	28100613          	li	a2,641
   12114:	000277b7          	lui	a5,0x27
   12118:	e7878593          	addi	a1,a5,-392 # 26e78 <halt_message+0x138>
   1211c:	000277b7          	lui	a5,0x27
   12120:	21878513          	addi	a0,a5,536 # 27218 <halt_message+0x4d8>
   12124:	1b9050ef          	jal	17adc <_assert_fail>
   12128:	fec42783          	lw	a5,-20(s0)
   1212c:	0027f793          	andi	a5,a5,2
   12130:	0017d793          	srli	a5,a5,0x1
   12134:	00078513          	mv	a0,a5
   12138:	01c12083          	lw	ra,28(sp)
   1213c:	01812403          	lw	s0,24(sp)
   12140:	02010113          	addi	sp,sp,32
   12144:	00008067          	ret

00012148 <cap_endpoint_cap_set_capCanReceive>:
   12148:	fd010113          	addi	sp,sp,-48
   1214c:	02112623          	sw	ra,44(sp)
   12150:	02812423          	sw	s0,40(sp)
   12154:	03010413          	addi	s0,sp,48
   12158:	fca42c23          	sw	a0,-40(s0)
   1215c:	fcb42e23          	sw	a1,-36(s0)
   12160:	fcc42a23          	sw	a2,-44(s0)
   12164:	fd842783          	lw	a5,-40(s0)
   12168:	00f7f713          	andi	a4,a5,15
   1216c:	00400793          	li	a5,4
   12170:	02f70263          	beq	a4,a5,12194 <cap_endpoint_cap_set_capCanReceive+0x4c>
   12174:	0002b7b7          	lui	a5,0x2b
   12178:	21078693          	addi	a3,a5,528 # 2b210 <__FUNCTION__.1985>
   1217c:	28900613          	li	a2,649
   12180:	000277b7          	lui	a5,0x27
   12184:	e7878593          	addi	a1,a5,-392 # 26e78 <halt_message+0x138>
   12188:	000277b7          	lui	a5,0x27
   1218c:	21878513          	addi	a0,a5,536 # 27218 <halt_message+0x4d8>
   12190:	14d050ef          	jal	17adc <_assert_fail>
   12194:	fd442783          	lw	a5,-44(s0)
   12198:	ffe7f793          	andi	a5,a5,-2
   1219c:	02078263          	beqz	a5,121c0 <cap_endpoint_cap_set_capCanReceive+0x78>
   121a0:	0002b7b7          	lui	a5,0x2b
   121a4:	21078693          	addi	a3,a5,528 # 2b210 <__FUNCTION__.1985>
   121a8:	28b00613          	li	a2,651
   121ac:	000277b7          	lui	a5,0x27
   121b0:	e7878593          	addi	a1,a5,-392 # 26e78 <halt_message+0x138>
   121b4:	000277b7          	lui	a5,0x27
   121b8:	24878513          	addi	a0,a5,584 # 27248 <halt_message+0x508>
   121bc:	121050ef          	jal	17adc <_assert_fail>
   121c0:	fdc42783          	lw	a5,-36(s0)
   121c4:	ffd7f793          	andi	a5,a5,-3
   121c8:	fcf42e23          	sw	a5,-36(s0)
   121cc:	fdc42703          	lw	a4,-36(s0)
   121d0:	fd442783          	lw	a5,-44(s0)
   121d4:	00179793          	slli	a5,a5,0x1
   121d8:	0027f793          	andi	a5,a5,2
   121dc:	00f767b3          	or	a5,a4,a5
   121e0:	fcf42e23          	sw	a5,-36(s0)
   121e4:	fd842783          	lw	a5,-40(s0)
   121e8:	fef42423          	sw	a5,-24(s0)
   121ec:	fdc42783          	lw	a5,-36(s0)
   121f0:	fef42623          	sw	a5,-20(s0)
   121f4:	00000713          	li	a4,0
   121f8:	fe842703          	lw	a4,-24(s0)
   121fc:	00000793          	li	a5,0
   12200:	fec42783          	lw	a5,-20(s0)
   12204:	00070813          	mv	a6,a4
   12208:	00078893          	mv	a7,a5
   1220c:	00080713          	mv	a4,a6
   12210:	00088793          	mv	a5,a7
   12214:	00070513          	mv	a0,a4
   12218:	00078593          	mv	a1,a5
   1221c:	02c12083          	lw	ra,44(sp)
   12220:	02812403          	lw	s0,40(sp)
   12224:	03010113          	addi	sp,sp,48
   12228:	00008067          	ret

0001222c <cap_endpoint_cap_get_capCanSend>:
   1222c:	fe010113          	addi	sp,sp,-32
   12230:	00112e23          	sw	ra,28(sp)
   12234:	00812c23          	sw	s0,24(sp)
   12238:	02010413          	addi	s0,sp,32
   1223c:	fea42423          	sw	a0,-24(s0)
   12240:	feb42623          	sw	a1,-20(s0)
   12244:	fe842783          	lw	a5,-24(s0)
   12248:	00f7f713          	andi	a4,a5,15
   1224c:	00400793          	li	a5,4
   12250:	02f70263          	beq	a4,a5,12274 <cap_endpoint_cap_get_capCanSend+0x48>
   12254:	0002b7b7          	lui	a5,0x2b
   12258:	bd878693          	addi	a3,a5,-1064 # 2abd8 <__FUNCTION__.1989>
   1225c:	29500613          	li	a2,661
   12260:	000277b7          	lui	a5,0x27
   12264:	e7878593          	addi	a1,a5,-392 # 26e78 <halt_message+0x138>
   12268:	000277b7          	lui	a5,0x27
   1226c:	21878513          	addi	a0,a5,536 # 27218 <halt_message+0x4d8>
   12270:	06d050ef          	jal	17adc <_assert_fail>
   12274:	fec42783          	lw	a5,-20(s0)
   12278:	0017f793          	andi	a5,a5,1
   1227c:	00078513          	mv	a0,a5
   12280:	01c12083          	lw	ra,28(sp)
   12284:	01812403          	lw	s0,24(sp)
   12288:	02010113          	addi	sp,sp,32
   1228c:	00008067          	ret

00012290 <cap_endpoint_cap_set_capCanSend>:
   12290:	fd010113          	addi	sp,sp,-48
   12294:	02112623          	sw	ra,44(sp)
   12298:	02812423          	sw	s0,40(sp)
   1229c:	03010413          	addi	s0,sp,48
   122a0:	fca42c23          	sw	a0,-40(s0)
   122a4:	fcb42e23          	sw	a1,-36(s0)
   122a8:	fcc42a23          	sw	a2,-44(s0)
   122ac:	fd842783          	lw	a5,-40(s0)
   122b0:	00f7f713          	andi	a4,a5,15
   122b4:	00400793          	li	a5,4
   122b8:	02f70263          	beq	a4,a5,122dc <cap_endpoint_cap_set_capCanSend+0x4c>
   122bc:	0002b7b7          	lui	a5,0x2b
   122c0:	1f078693          	addi	a3,a5,496 # 2b1f0 <__FUNCTION__.1994>
   122c4:	29d00613          	li	a2,669
   122c8:	000277b7          	lui	a5,0x27
   122cc:	e7878593          	addi	a1,a5,-392 # 26e78 <halt_message+0x138>
   122d0:	000277b7          	lui	a5,0x27
   122d4:	21878513          	addi	a0,a5,536 # 27218 <halt_message+0x4d8>
   122d8:	005050ef          	jal	17adc <_assert_fail>
   122dc:	fd442783          	lw	a5,-44(s0)
   122e0:	ffe7f793          	andi	a5,a5,-2
   122e4:	02078263          	beqz	a5,12308 <cap_endpoint_cap_set_capCanSend+0x78>
   122e8:	0002b7b7          	lui	a5,0x2b
   122ec:	1f078693          	addi	a3,a5,496 # 2b1f0 <__FUNCTION__.1994>
   122f0:	29f00613          	li	a2,671
   122f4:	000277b7          	lui	a5,0x27
   122f8:	e7878593          	addi	a1,a5,-392 # 26e78 <halt_message+0x138>
   122fc:	000277b7          	lui	a5,0x27
   12300:	f0078513          	addi	a0,a5,-256 # 26f00 <halt_message+0x1c0>
   12304:	7d8050ef          	jal	17adc <_assert_fail>
   12308:	fdc42783          	lw	a5,-36(s0)
   1230c:	ffe7f793          	andi	a5,a5,-2
   12310:	fcf42e23          	sw	a5,-36(s0)
   12314:	fdc42703          	lw	a4,-36(s0)
   12318:	fd442783          	lw	a5,-44(s0)
   1231c:	0017f793          	andi	a5,a5,1
   12320:	00f767b3          	or	a5,a4,a5
   12324:	fcf42e23          	sw	a5,-36(s0)
   12328:	fd842783          	lw	a5,-40(s0)
   1232c:	fef42423          	sw	a5,-24(s0)
   12330:	fdc42783          	lw	a5,-36(s0)
   12334:	fef42623          	sw	a5,-20(s0)
   12338:	00000713          	li	a4,0
   1233c:	fe842703          	lw	a4,-24(s0)
   12340:	00000793          	li	a5,0
   12344:	fec42783          	lw	a5,-20(s0)
   12348:	00070813          	mv	a6,a4
   1234c:	00078893          	mv	a7,a5
   12350:	00080713          	mv	a4,a6
   12354:	00088793          	mv	a5,a7
   12358:	00070513          	mv	a0,a4
   1235c:	00078593          	mv	a1,a5
   12360:	02c12083          	lw	ra,44(sp)
   12364:	02812403          	lw	s0,40(sp)
   12368:	03010113          	addi	sp,sp,48
   1236c:	00008067          	ret

00012370 <cap_endpoint_cap_get_capEPBadge>:
   12370:	fe010113          	addi	sp,sp,-32
   12374:	00112e23          	sw	ra,28(sp)
   12378:	00812c23          	sw	s0,24(sp)
   1237c:	02010413          	addi	s0,sp,32
   12380:	fea42423          	sw	a0,-24(s0)
   12384:	feb42623          	sw	a1,-20(s0)
   12388:	fe842783          	lw	a5,-24(s0)
   1238c:	00f7f713          	andi	a4,a5,15
   12390:	00400793          	li	a5,4
   12394:	02f70263          	beq	a4,a5,123b8 <cap_endpoint_cap_get_capEPBadge+0x48>
   12398:	0002b7b7          	lui	a5,0x2b
   1239c:	9bc78693          	addi	a3,a5,-1604 # 2a9bc <__FUNCTION__.1998>
   123a0:	2a900613          	li	a2,681
   123a4:	000277b7          	lui	a5,0x27
   123a8:	e7878593          	addi	a1,a5,-392 # 26e78 <halt_message+0x138>
   123ac:	000277b7          	lui	a5,0x27
   123b0:	21878513          	addi	a0,a5,536 # 27218 <halt_message+0x4d8>
   123b4:	728050ef          	jal	17adc <_assert_fail>
   123b8:	fe842783          	lw	a5,-24(s0)
   123bc:	0047d793          	srli	a5,a5,0x4
   123c0:	00078513          	mv	a0,a5
   123c4:	01c12083          	lw	ra,28(sp)
   123c8:	01812403          	lw	s0,24(sp)
   123cc:	02010113          	addi	sp,sp,32
   123d0:	00008067          	ret

000123d4 <cap_endpoint_cap_set_capEPBadge>:
   123d4:	fd010113          	addi	sp,sp,-48
   123d8:	02112623          	sw	ra,44(sp)
   123dc:	02812423          	sw	s0,40(sp)
   123e0:	03010413          	addi	s0,sp,48
   123e4:	fca42c23          	sw	a0,-40(s0)
   123e8:	fcb42e23          	sw	a1,-36(s0)
   123ec:	fcc42a23          	sw	a2,-44(s0)
   123f0:	fd842783          	lw	a5,-40(s0)
   123f4:	00f7f713          	andi	a4,a5,15
   123f8:	00400793          	li	a5,4
   123fc:	02f70263          	beq	a4,a5,12420 <cap_endpoint_cap_set_capEPBadge+0x4c>
   12400:	0002b7b7          	lui	a5,0x2b
   12404:	15478693          	addi	a3,a5,340 # 2b154 <__FUNCTION__.2003>
   12408:	2b100613          	li	a2,689
   1240c:	000277b7          	lui	a5,0x27
   12410:	e7878593          	addi	a1,a5,-392 # 26e78 <halt_message+0x138>
   12414:	000277b7          	lui	a5,0x27
   12418:	21878513          	addi	a0,a5,536 # 27218 <halt_message+0x4d8>
   1241c:	6c0050ef          	jal	17adc <_assert_fail>
   12420:	fd842783          	lw	a5,-40(s0)
   12424:	00f7f793          	andi	a5,a5,15
   12428:	fcf42c23          	sw	a5,-40(s0)
   1242c:	fd842703          	lw	a4,-40(s0)
   12430:	fd442783          	lw	a5,-44(s0)
   12434:	00479793          	slli	a5,a5,0x4
   12438:	00f767b3          	or	a5,a4,a5
   1243c:	fcf42c23          	sw	a5,-40(s0)
   12440:	fd842783          	lw	a5,-40(s0)
   12444:	fef42423          	sw	a5,-24(s0)
   12448:	fdc42783          	lw	a5,-36(s0)
   1244c:	fef42623          	sw	a5,-20(s0)
   12450:	00000713          	li	a4,0
   12454:	fe842703          	lw	a4,-24(s0)
   12458:	00000793          	li	a5,0
   1245c:	fec42783          	lw	a5,-20(s0)
   12460:	00070813          	mv	a6,a4
   12464:	00078893          	mv	a7,a5
   12468:	00080713          	mv	a4,a6
   1246c:	00088793          	mv	a5,a7
   12470:	00070513          	mv	a0,a4
   12474:	00078593          	mv	a1,a5
   12478:	02c12083          	lw	ra,44(sp)
   1247c:	02812403          	lw	s0,40(sp)
   12480:	03010113          	addi	sp,sp,48
   12484:	00008067          	ret

00012488 <cap_async_endpoint_cap_new>:
   12488:	fd010113          	addi	sp,sp,-48
   1248c:	02112623          	sw	ra,44(sp)
   12490:	02812423          	sw	s0,40(sp)
   12494:	03010413          	addi	s0,sp,48
   12498:	fca42e23          	sw	a0,-36(s0)
   1249c:	fcb42c23          	sw	a1,-40(s0)
   124a0:	fcc42a23          	sw	a2,-44(s0)
   124a4:	fcd42823          	sw	a3,-48(s0)
   124a8:	fe042023          	sw	zero,-32(s0)
   124ac:	fe042223          	sw	zero,-28(s0)
   124b0:	fdc42703          	lw	a4,-36(s0)
   124b4:	f00007b7          	lui	a5,0xf0000
   124b8:	00f777b3          	and	a5,a4,a5
   124bc:	02078263          	beqz	a5,124e0 <cap_async_endpoint_cap_new+0x58>
   124c0:	0002b7b7          	lui	a5,0x2b
   124c4:	2d878693          	addi	a3,a5,728 # 2b2d8 <__FUNCTION__.2011>
   124c8:	2c200613          	li	a2,706
   124cc:	000277b7          	lui	a5,0x27
   124d0:	e7878593          	addi	a1,a5,-392 # 26e78 <halt_message+0x138>
   124d4:	000277b7          	lui	a5,0x27
   124d8:	26078513          	addi	a0,a5,608 # 27260 <halt_message+0x520>
   124dc:	600050ef          	jal	17adc <_assert_fail>
   124e0:	fe442703          	lw	a4,-28(s0)
   124e4:	fdc42783          	lw	a5,-36(s0)
   124e8:	00479793          	slli	a5,a5,0x4
   124ec:	00f767b3          	or	a5,a4,a5
   124f0:	fef42223          	sw	a5,-28(s0)
   124f4:	fd842783          	lw	a5,-40(s0)
   124f8:	ffe7f793          	andi	a5,a5,-2
   124fc:	02078263          	beqz	a5,12520 <cap_async_endpoint_cap_new+0x98>
   12500:	0002b7b7          	lui	a5,0x2b
   12504:	2d878693          	addi	a3,a5,728 # 2b2d8 <__FUNCTION__.2011>
   12508:	2c500613          	li	a2,709
   1250c:	000277b7          	lui	a5,0x27
   12510:	e7878593          	addi	a1,a5,-392 # 26e78 <halt_message+0x138>
   12514:	000277b7          	lui	a5,0x27
   12518:	28078513          	addi	a0,a5,640 # 27280 <halt_message+0x540>
   1251c:	5c0050ef          	jal	17adc <_assert_fail>
   12520:	fe442703          	lw	a4,-28(s0)
   12524:	fd842783          	lw	a5,-40(s0)
   12528:	0017f793          	andi	a5,a5,1
   1252c:	00179793          	slli	a5,a5,0x1
   12530:	00f767b3          	or	a5,a4,a5
   12534:	fef42223          	sw	a5,-28(s0)
   12538:	fd442783          	lw	a5,-44(s0)
   1253c:	ffe7f793          	andi	a5,a5,-2
   12540:	02078263          	beqz	a5,12564 <cap_async_endpoint_cap_new+0xdc>
   12544:	0002b7b7          	lui	a5,0x2b
   12548:	2d878693          	addi	a3,a5,728 # 2b2d8 <__FUNCTION__.2011>
   1254c:	2c800613          	li	a2,712
   12550:	000277b7          	lui	a5,0x27
   12554:	e7878593          	addi	a1,a5,-392 # 26e78 <halt_message+0x138>
   12558:	000277b7          	lui	a5,0x27
   1255c:	2a078513          	addi	a0,a5,672 # 272a0 <halt_message+0x560>
   12560:	57c050ef          	jal	17adc <_assert_fail>
   12564:	fe442703          	lw	a4,-28(s0)
   12568:	fd442783          	lw	a5,-44(s0)
   1256c:	0017f793          	andi	a5,a5,1
   12570:	00f767b3          	or	a5,a4,a5
   12574:	fef42223          	sw	a5,-28(s0)
   12578:	fd042783          	lw	a5,-48(s0)
   1257c:	00f7f793          	andi	a5,a5,15
   12580:	02078263          	beqz	a5,125a4 <cap_async_endpoint_cap_new+0x11c>
   12584:	0002b7b7          	lui	a5,0x2b
   12588:	2d878693          	addi	a3,a5,728 # 2b2d8 <__FUNCTION__.2011>
   1258c:	2cb00613          	li	a2,715
   12590:	000277b7          	lui	a5,0x27
   12594:	e7878593          	addi	a1,a5,-392 # 26e78 <halt_message+0x138>
   12598:	000277b7          	lui	a5,0x27
   1259c:	2bc78513          	addi	a0,a5,700 # 272bc <halt_message+0x57c>
   125a0:	53c050ef          	jal	17adc <_assert_fail>
   125a4:	fe042703          	lw	a4,-32(s0)
   125a8:	fd042783          	lw	a5,-48(s0)
   125ac:	ff07f793          	andi	a5,a5,-16
   125b0:	00f767b3          	or	a5,a4,a5
   125b4:	fef42023          	sw	a5,-32(s0)
   125b8:	fe042783          	lw	a5,-32(s0)
   125bc:	0067e793          	ori	a5,a5,6
   125c0:	fef42023          	sw	a5,-32(s0)
   125c4:	fe042783          	lw	a5,-32(s0)
   125c8:	fef42423          	sw	a5,-24(s0)
   125cc:	fe442783          	lw	a5,-28(s0)
   125d0:	fef42623          	sw	a5,-20(s0)
   125d4:	00000713          	li	a4,0
   125d8:	fe842703          	lw	a4,-24(s0)
   125dc:	00000793          	li	a5,0
   125e0:	fec42783          	lw	a5,-20(s0)
   125e4:	00070813          	mv	a6,a4
   125e8:	00078893          	mv	a7,a5
   125ec:	00080713          	mv	a4,a6
   125f0:	00088793          	mv	a5,a7
   125f4:	00070513          	mv	a0,a4
   125f8:	00078593          	mv	a1,a5
   125fc:	02c12083          	lw	ra,44(sp)
   12600:	02812403          	lw	s0,40(sp)
   12604:	03010113          	addi	sp,sp,48
   12608:	00008067          	ret

0001260c <cap_async_endpoint_cap_get_capAEPBadge>:
   1260c:	fe010113          	addi	sp,sp,-32
   12610:	00112e23          	sw	ra,28(sp)
   12614:	00812c23          	sw	s0,24(sp)
   12618:	02010413          	addi	s0,sp,32
   1261c:	fea42423          	sw	a0,-24(s0)
   12620:	feb42623          	sw	a1,-20(s0)
   12624:	fe842783          	lw	a5,-24(s0)
   12628:	00f7f713          	andi	a4,a5,15
   1262c:	00600793          	li	a5,6
   12630:	02f70263          	beq	a4,a5,12654 <cap_async_endpoint_cap_get_capAEPBadge+0x48>
   12634:	0002b7b7          	lui	a5,0x2b
   12638:	9dc78693          	addi	a3,a5,-1572 # 2a9dc <__FUNCTION__.2015>
   1263c:	2d700613          	li	a2,727
   12640:	000277b7          	lui	a5,0x27
   12644:	e7878593          	addi	a1,a5,-392 # 26e78 <halt_message+0x138>
   12648:	000277b7          	lui	a5,0x27
   1264c:	2dc78513          	addi	a0,a5,732 # 272dc <halt_message+0x59c>
   12650:	48c050ef          	jal	17adc <_assert_fail>
   12654:	fec42783          	lw	a5,-20(s0)
   12658:	0047d793          	srli	a5,a5,0x4
   1265c:	00078513          	mv	a0,a5
   12660:	01c12083          	lw	ra,28(sp)
   12664:	01812403          	lw	s0,24(sp)
   12668:	02010113          	addi	sp,sp,32
   1266c:	00008067          	ret

00012670 <cap_async_endpoint_cap_set_capAEPBadge>:
   12670:	fd010113          	addi	sp,sp,-48
   12674:	02112623          	sw	ra,44(sp)
   12678:	02812423          	sw	s0,40(sp)
   1267c:	03010413          	addi	s0,sp,48
   12680:	fca42c23          	sw	a0,-40(s0)
   12684:	fcb42e23          	sw	a1,-36(s0)
   12688:	fcc42a23          	sw	a2,-44(s0)
   1268c:	fd842783          	lw	a5,-40(s0)
   12690:	00f7f713          	andi	a4,a5,15
   12694:	00600793          	li	a5,6
   12698:	02f70263          	beq	a4,a5,126bc <cap_async_endpoint_cap_set_capAEPBadge+0x4c>
   1269c:	0002b7b7          	lui	a5,0x2b
   126a0:	17478693          	addi	a3,a5,372 # 2b174 <__FUNCTION__.2020>
   126a4:	2df00613          	li	a2,735
   126a8:	000277b7          	lui	a5,0x27
   126ac:	e7878593          	addi	a1,a5,-392 # 26e78 <halt_message+0x138>
   126b0:	000277b7          	lui	a5,0x27
   126b4:	2dc78513          	addi	a0,a5,732 # 272dc <halt_message+0x59c>
   126b8:	424050ef          	jal	17adc <_assert_fail>
   126bc:	fdc42783          	lw	a5,-36(s0)
   126c0:	00f7f793          	andi	a5,a5,15
   126c4:	fcf42e23          	sw	a5,-36(s0)
   126c8:	fdc42703          	lw	a4,-36(s0)
   126cc:	fd442783          	lw	a5,-44(s0)
   126d0:	00479793          	slli	a5,a5,0x4
   126d4:	00f767b3          	or	a5,a4,a5
   126d8:	fcf42e23          	sw	a5,-36(s0)
   126dc:	fd842783          	lw	a5,-40(s0)
   126e0:	fef42423          	sw	a5,-24(s0)
   126e4:	fdc42783          	lw	a5,-36(s0)
   126e8:	fef42623          	sw	a5,-20(s0)
   126ec:	00000713          	li	a4,0
   126f0:	fe842703          	lw	a4,-24(s0)
   126f4:	00000793          	li	a5,0
   126f8:	fec42783          	lw	a5,-20(s0)
   126fc:	00070813          	mv	a6,a4
   12700:	00078893          	mv	a7,a5
   12704:	00080713          	mv	a4,a6
   12708:	00088793          	mv	a5,a7
   1270c:	00070513          	mv	a0,a4
   12710:	00078593          	mv	a1,a5
   12714:	02c12083          	lw	ra,44(sp)
   12718:	02812403          	lw	s0,40(sp)
   1271c:	03010113          	addi	sp,sp,48
   12720:	00008067          	ret

00012724 <cap_async_endpoint_cap_get_capAEPCanReceive>:
   12724:	fe010113          	addi	sp,sp,-32
   12728:	00112e23          	sw	ra,28(sp)
   1272c:	00812c23          	sw	s0,24(sp)
   12730:	02010413          	addi	s0,sp,32
   12734:	fea42423          	sw	a0,-24(s0)
   12738:	feb42623          	sw	a1,-20(s0)
   1273c:	fe842783          	lw	a5,-24(s0)
   12740:	00f7f713          	andi	a4,a5,15
   12744:	00600793          	li	a5,6
   12748:	02f70263          	beq	a4,a5,1276c <cap_async_endpoint_cap_get_capAEPCanReceive+0x48>
   1274c:	0002a7b7          	lui	a5,0x2a
   12750:	6f478693          	addi	a3,a5,1780 # 2a6f4 <__FUNCTION__.2024>
   12754:	2eb00613          	li	a2,747
   12758:	000277b7          	lui	a5,0x27
   1275c:	e7878593          	addi	a1,a5,-392 # 26e78 <halt_message+0x138>
   12760:	000277b7          	lui	a5,0x27
   12764:	2dc78513          	addi	a0,a5,732 # 272dc <halt_message+0x59c>
   12768:	374050ef          	jal	17adc <_assert_fail>
   1276c:	fec42783          	lw	a5,-20(s0)
   12770:	0027f793          	andi	a5,a5,2
   12774:	0017d793          	srli	a5,a5,0x1
   12778:	00078513          	mv	a0,a5
   1277c:	01c12083          	lw	ra,28(sp)
   12780:	01812403          	lw	s0,24(sp)
   12784:	02010113          	addi	sp,sp,32
   12788:	00008067          	ret

0001278c <cap_async_endpoint_cap_set_capAEPCanReceive>:
   1278c:	fd010113          	addi	sp,sp,-48
   12790:	02112623          	sw	ra,44(sp)
   12794:	02812423          	sw	s0,40(sp)
   12798:	03010413          	addi	s0,sp,48
   1279c:	fca42c23          	sw	a0,-40(s0)
   127a0:	fcb42e23          	sw	a1,-36(s0)
   127a4:	fcc42a23          	sw	a2,-44(s0)
   127a8:	fd842783          	lw	a5,-40(s0)
   127ac:	00f7f713          	andi	a4,a5,15
   127b0:	00600793          	li	a5,6
   127b4:	02f70263          	beq	a4,a5,127d8 <cap_async_endpoint_cap_set_capAEPCanReceive+0x4c>
   127b8:	0002b7b7          	lui	a5,0x2b
   127bc:	28478693          	addi	a3,a5,644 # 2b284 <__FUNCTION__.2029>
   127c0:	2f300613          	li	a2,755
   127c4:	000277b7          	lui	a5,0x27
   127c8:	e7878593          	addi	a1,a5,-392 # 26e78 <halt_message+0x138>
   127cc:	000277b7          	lui	a5,0x27
   127d0:	2dc78513          	addi	a0,a5,732 # 272dc <halt_message+0x59c>
   127d4:	308050ef          	jal	17adc <_assert_fail>
   127d8:	fd442783          	lw	a5,-44(s0)
   127dc:	ffe7f793          	andi	a5,a5,-2
   127e0:	02078263          	beqz	a5,12804 <cap_async_endpoint_cap_set_capAEPCanReceive+0x78>
   127e4:	0002b7b7          	lui	a5,0x2b
   127e8:	28478693          	addi	a3,a5,644 # 2b284 <__FUNCTION__.2029>
   127ec:	2f500613          	li	a2,757
   127f0:	000277b7          	lui	a5,0x27
   127f4:	e7878593          	addi	a1,a5,-392 # 26e78 <halt_message+0x138>
   127f8:	000277b7          	lui	a5,0x27
   127fc:	24878513          	addi	a0,a5,584 # 27248 <halt_message+0x508>
   12800:	2dc050ef          	jal	17adc <_assert_fail>
   12804:	fdc42783          	lw	a5,-36(s0)
   12808:	ffd7f793          	andi	a5,a5,-3
   1280c:	fcf42e23          	sw	a5,-36(s0)
   12810:	fdc42703          	lw	a4,-36(s0)
   12814:	fd442783          	lw	a5,-44(s0)
   12818:	00179793          	slli	a5,a5,0x1
   1281c:	0027f793          	andi	a5,a5,2
   12820:	00f767b3          	or	a5,a4,a5
   12824:	fcf42e23          	sw	a5,-36(s0)
   12828:	fd842783          	lw	a5,-40(s0)
   1282c:	fef42423          	sw	a5,-24(s0)
   12830:	fdc42783          	lw	a5,-36(s0)
   12834:	fef42623          	sw	a5,-20(s0)
   12838:	00000713          	li	a4,0
   1283c:	fe842703          	lw	a4,-24(s0)
   12840:	00000793          	li	a5,0
   12844:	fec42783          	lw	a5,-20(s0)
   12848:	00070813          	mv	a6,a4
   1284c:	00078893          	mv	a7,a5
   12850:	00080713          	mv	a4,a6
   12854:	00088793          	mv	a5,a7
   12858:	00070513          	mv	a0,a4
   1285c:	00078593          	mv	a1,a5
   12860:	02c12083          	lw	ra,44(sp)
   12864:	02812403          	lw	s0,40(sp)
   12868:	03010113          	addi	sp,sp,48
   1286c:	00008067          	ret

00012870 <cap_async_endpoint_cap_get_capAEPCanSend>:
   12870:	fe010113          	addi	sp,sp,-32
   12874:	00112e23          	sw	ra,28(sp)
   12878:	00812c23          	sw	s0,24(sp)
   1287c:	02010413          	addi	s0,sp,32
   12880:	fea42423          	sw	a0,-24(s0)
   12884:	feb42623          	sw	a1,-20(s0)
   12888:	fe842783          	lw	a5,-24(s0)
   1288c:	00f7f713          	andi	a4,a5,15
   12890:	00600793          	li	a5,6
   12894:	02f70263          	beq	a4,a5,128b8 <cap_async_endpoint_cap_get_capAEPCanSend+0x48>
   12898:	0002b7b7          	lui	a5,0x2b
   1289c:	0c878693          	addi	a3,a5,200 # 2b0c8 <__FUNCTION__.2033>
   128a0:	2ff00613          	li	a2,767
   128a4:	000277b7          	lui	a5,0x27
   128a8:	e7878593          	addi	a1,a5,-392 # 26e78 <halt_message+0x138>
   128ac:	000277b7          	lui	a5,0x27
   128b0:	2dc78513          	addi	a0,a5,732 # 272dc <halt_message+0x59c>
   128b4:	228050ef          	jal	17adc <_assert_fail>
   128b8:	fec42783          	lw	a5,-20(s0)
   128bc:	0017f793          	andi	a5,a5,1
   128c0:	00078513          	mv	a0,a5
   128c4:	01c12083          	lw	ra,28(sp)
   128c8:	01812403          	lw	s0,24(sp)
   128cc:	02010113          	addi	sp,sp,32
   128d0:	00008067          	ret

000128d4 <cap_async_endpoint_cap_set_capAEPCanSend>:
   128d4:	fd010113          	addi	sp,sp,-48
   128d8:	02112623          	sw	ra,44(sp)
   128dc:	02812423          	sw	s0,40(sp)
   128e0:	03010413          	addi	s0,sp,48
   128e4:	fca42c23          	sw	a0,-40(s0)
   128e8:	fcb42e23          	sw	a1,-36(s0)
   128ec:	fcc42a23          	sw	a2,-44(s0)
   128f0:	fd842783          	lw	a5,-40(s0)
   128f4:	00f7f713          	andi	a4,a5,15
   128f8:	00600793          	li	a5,6
   128fc:	02f70263          	beq	a4,a5,12920 <cap_async_endpoint_cap_set_capAEPCanSend+0x4c>
   12900:	0002b7b7          	lui	a5,0x2b
   12904:	25878693          	addi	a3,a5,600 # 2b258 <__FUNCTION__.2038>
   12908:	30700613          	li	a2,775
   1290c:	000277b7          	lui	a5,0x27
   12910:	e7878593          	addi	a1,a5,-392 # 26e78 <halt_message+0x138>
   12914:	000277b7          	lui	a5,0x27
   12918:	2dc78513          	addi	a0,a5,732 # 272dc <halt_message+0x59c>
   1291c:	1c0050ef          	jal	17adc <_assert_fail>
   12920:	fd442783          	lw	a5,-44(s0)
   12924:	ffe7f793          	andi	a5,a5,-2
   12928:	02078263          	beqz	a5,1294c <cap_async_endpoint_cap_set_capAEPCanSend+0x78>
   1292c:	0002b7b7          	lui	a5,0x2b
   12930:	25878693          	addi	a3,a5,600 # 2b258 <__FUNCTION__.2038>
   12934:	30900613          	li	a2,777
   12938:	000277b7          	lui	a5,0x27
   1293c:	e7878593          	addi	a1,a5,-392 # 26e78 <halt_message+0x138>
   12940:	000277b7          	lui	a5,0x27
   12944:	f0078513          	addi	a0,a5,-256 # 26f00 <halt_message+0x1c0>
   12948:	194050ef          	jal	17adc <_assert_fail>
   1294c:	fdc42783          	lw	a5,-36(s0)
   12950:	ffe7f793          	andi	a5,a5,-2
   12954:	fcf42e23          	sw	a5,-36(s0)
   12958:	fdc42703          	lw	a4,-36(s0)
   1295c:	fd442783          	lw	a5,-44(s0)
   12960:	0017f793          	andi	a5,a5,1
   12964:	00f767b3          	or	a5,a4,a5
   12968:	fcf42e23          	sw	a5,-36(s0)
   1296c:	fd842783          	lw	a5,-40(s0)
   12970:	fef42423          	sw	a5,-24(s0)
   12974:	fdc42783          	lw	a5,-36(s0)
   12978:	fef42623          	sw	a5,-20(s0)
   1297c:	00000713          	li	a4,0
   12980:	fe842703          	lw	a4,-24(s0)
   12984:	00000793          	li	a5,0
   12988:	fec42783          	lw	a5,-20(s0)
   1298c:	00070813          	mv	a6,a4
   12990:	00078893          	mv	a7,a5
   12994:	00080713          	mv	a4,a6
   12998:	00088793          	mv	a5,a7
   1299c:	00070513          	mv	a0,a4
   129a0:	00078593          	mv	a1,a5
   129a4:	02c12083          	lw	ra,44(sp)
   129a8:	02812403          	lw	s0,40(sp)
   129ac:	03010113          	addi	sp,sp,48
   129b0:	00008067          	ret

000129b4 <cap_async_endpoint_cap_get_capAEPPtr>:
   129b4:	fe010113          	addi	sp,sp,-32
   129b8:	00112e23          	sw	ra,28(sp)
   129bc:	00812c23          	sw	s0,24(sp)
   129c0:	02010413          	addi	s0,sp,32
   129c4:	fea42423          	sw	a0,-24(s0)
   129c8:	feb42623          	sw	a1,-20(s0)
   129cc:	fe842783          	lw	a5,-24(s0)
   129d0:	00f7f713          	andi	a4,a5,15
   129d4:	00600793          	li	a5,6
   129d8:	02f70263          	beq	a4,a5,129fc <cap_async_endpoint_cap_get_capAEPPtr+0x48>
   129dc:	0002a7b7          	lui	a5,0x2a
   129e0:	6cc78693          	addi	a3,a5,1740 # 2a6cc <__FUNCTION__.2042>
   129e4:	31300613          	li	a2,787
   129e8:	000277b7          	lui	a5,0x27
   129ec:	e7878593          	addi	a1,a5,-392 # 26e78 <halt_message+0x138>
   129f0:	000277b7          	lui	a5,0x27
   129f4:	2dc78513          	addi	a0,a5,732 # 272dc <halt_message+0x59c>
   129f8:	0e4050ef          	jal	17adc <_assert_fail>
   129fc:	fe842783          	lw	a5,-24(s0)
   12a00:	ff07f793          	andi	a5,a5,-16
   12a04:	00078513          	mv	a0,a5
   12a08:	01c12083          	lw	ra,28(sp)
   12a0c:	01812403          	lw	s0,24(sp)
   12a10:	02010113          	addi	sp,sp,32
   12a14:	00008067          	ret

00012a18 <cap_reply_cap_new>:
   12a18:	fd010113          	addi	sp,sp,-48
   12a1c:	02112623          	sw	ra,44(sp)
   12a20:	02812423          	sw	s0,40(sp)
   12a24:	03010413          	addi	s0,sp,48
   12a28:	fca42e23          	sw	a0,-36(s0)
   12a2c:	fcb42c23          	sw	a1,-40(s0)
   12a30:	fcc42a23          	sw	a2,-44(s0)
   12a34:	fe042023          	sw	zero,-32(s0)
   12a38:	fe042223          	sw	zero,-28(s0)
   12a3c:	fdc42783          	lw	a5,-36(s0)
   12a40:	ffe7f793          	andi	a5,a5,-2
   12a44:	02078263          	beqz	a5,12a68 <cap_reply_cap_new+0x50>
   12a48:	0002b7b7          	lui	a5,0x2b
   12a4c:	d4878693          	addi	a3,a5,-696 # 2ad48 <__FUNCTION__.2049>
   12a50:	32000613          	li	a2,800
   12a54:	000277b7          	lui	a5,0x27
   12a58:	e7878593          	addi	a1,a5,-392 # 26e78 <halt_message+0x138>
   12a5c:	000277b7          	lui	a5,0x27
   12a60:	31478513          	addi	a0,a5,788 # 27314 <halt_message+0x5d4>
   12a64:	078050ef          	jal	17adc <_assert_fail>
   12a68:	fe442703          	lw	a4,-28(s0)
   12a6c:	fdc42783          	lw	a5,-36(s0)
   12a70:	0017f793          	andi	a5,a5,1
   12a74:	00179793          	slli	a5,a5,0x1
   12a78:	00f767b3          	or	a5,a4,a5
   12a7c:	fef42223          	sw	a5,-28(s0)
   12a80:	fd842783          	lw	a5,-40(s0)
   12a84:	ffe7f793          	andi	a5,a5,-2
   12a88:	02078263          	beqz	a5,12aac <cap_reply_cap_new+0x94>
   12a8c:	0002b7b7          	lui	a5,0x2b
   12a90:	d4878693          	addi	a3,a5,-696 # 2ad48 <__FUNCTION__.2049>
   12a94:	32300613          	li	a2,803
   12a98:	000277b7          	lui	a5,0x27
   12a9c:	e7878593          	addi	a1,a5,-392 # 26e78 <halt_message+0x138>
   12aa0:	000277b7          	lui	a5,0x27
   12aa4:	32c78513          	addi	a0,a5,812 # 2732c <halt_message+0x5ec>
   12aa8:	034050ef          	jal	17adc <_assert_fail>
   12aac:	fe442703          	lw	a4,-28(s0)
   12ab0:	fd842783          	lw	a5,-40(s0)
   12ab4:	0017f793          	andi	a5,a5,1
   12ab8:	00f767b3          	or	a5,a4,a5
   12abc:	fef42223          	sw	a5,-28(s0)
   12ac0:	fd442783          	lw	a5,-44(s0)
   12ac4:	01f7f793          	andi	a5,a5,31
   12ac8:	02078263          	beqz	a5,12aec <cap_reply_cap_new+0xd4>
   12acc:	0002b7b7          	lui	a5,0x2b
   12ad0:	d4878693          	addi	a3,a5,-696 # 2ad48 <__FUNCTION__.2049>
   12ad4:	32600613          	li	a2,806
   12ad8:	000277b7          	lui	a5,0x27
   12adc:	e7878593          	addi	a1,a5,-392 # 26e78 <halt_message+0x138>
   12ae0:	000277b7          	lui	a5,0x27
   12ae4:	34c78513          	addi	a0,a5,844 # 2734c <halt_message+0x60c>
   12ae8:	7f5040ef          	jal	17adc <_assert_fail>
   12aec:	fe042703          	lw	a4,-32(s0)
   12af0:	fd442783          	lw	a5,-44(s0)
   12af4:	fe07f793          	andi	a5,a5,-32
   12af8:	00f767b3          	or	a5,a4,a5
   12afc:	fef42023          	sw	a5,-32(s0)
   12b00:	fe042783          	lw	a5,-32(s0)
   12b04:	0087e793          	ori	a5,a5,8
   12b08:	fef42023          	sw	a5,-32(s0)
   12b0c:	fe042783          	lw	a5,-32(s0)
   12b10:	fef42423          	sw	a5,-24(s0)
   12b14:	fe442783          	lw	a5,-28(s0)
   12b18:	fef42623          	sw	a5,-20(s0)
   12b1c:	00000713          	li	a4,0
   12b20:	fe842703          	lw	a4,-24(s0)
   12b24:	00000793          	li	a5,0
   12b28:	fec42783          	lw	a5,-20(s0)
   12b2c:	00070813          	mv	a6,a4
   12b30:	00078893          	mv	a7,a5
   12b34:	00080713          	mv	a4,a6
   12b38:	00088793          	mv	a5,a7
   12b3c:	00070513          	mv	a0,a4
   12b40:	00078593          	mv	a1,a5
   12b44:	02c12083          	lw	ra,44(sp)
   12b48:	02812403          	lw	s0,40(sp)
   12b4c:	03010113          	addi	sp,sp,48
   12b50:	00008067          	ret

00012b54 <cap_reply_cap_get_capInCDT>:
   12b54:	fe010113          	addi	sp,sp,-32
   12b58:	00112e23          	sw	ra,28(sp)
   12b5c:	00812c23          	sw	s0,24(sp)
   12b60:	02010413          	addi	s0,sp,32
   12b64:	fea42423          	sw	a0,-24(s0)
   12b68:	feb42623          	sw	a1,-20(s0)
   12b6c:	fe842783          	lw	a5,-24(s0)
   12b70:	00f7f713          	andi	a4,a5,15
   12b74:	00800793          	li	a5,8
   12b78:	02f70263          	beq	a4,a5,12b9c <cap_reply_cap_get_capInCDT+0x48>
   12b7c:	0002b7b7          	lui	a5,0x2b
   12b80:	d2c78693          	addi	a3,a5,-724 # 2ad2c <__FUNCTION__.2053>
   12b84:	33200613          	li	a2,818
   12b88:	000277b7          	lui	a5,0x27
   12b8c:	e7878593          	addi	a1,a5,-392 # 26e78 <halt_message+0x138>
   12b90:	000277b7          	lui	a5,0x27
   12b94:	36c78513          	addi	a0,a5,876 # 2736c <halt_message+0x62c>
   12b98:	745040ef          	jal	17adc <_assert_fail>
   12b9c:	fec42783          	lw	a5,-20(s0)
   12ba0:	0027f793          	andi	a5,a5,2
   12ba4:	0017d793          	srli	a5,a5,0x1
   12ba8:	00078513          	mv	a0,a5
   12bac:	01c12083          	lw	ra,28(sp)
   12bb0:	01812403          	lw	s0,24(sp)
   12bb4:	02010113          	addi	sp,sp,32
   12bb8:	00008067          	ret

00012bbc <cap_reply_cap_ptr_set_capInCDT>:
   12bbc:	fe010113          	addi	sp,sp,-32
   12bc0:	00112e23          	sw	ra,28(sp)
   12bc4:	00812c23          	sw	s0,24(sp)
   12bc8:	02010413          	addi	s0,sp,32
   12bcc:	fea42623          	sw	a0,-20(s0)
   12bd0:	feb42423          	sw	a1,-24(s0)
   12bd4:	fec42783          	lw	a5,-20(s0)
   12bd8:	0007a783          	lw	a5,0(a5)
   12bdc:	00f7f713          	andi	a4,a5,15
   12be0:	00800793          	li	a5,8
   12be4:	02f70263          	beq	a4,a5,12c08 <cap_reply_cap_ptr_set_capInCDT+0x4c>
   12be8:	0002b7b7          	lui	a5,0x2b
   12bec:	f2878693          	addi	a3,a5,-216 # 2af28 <__FUNCTION__.2058>
   12bf0:	33b00613          	li	a2,827
   12bf4:	000277b7          	lui	a5,0x27
   12bf8:	e7878593          	addi	a1,a5,-392 # 26e78 <halt_message+0x138>
   12bfc:	000277b7          	lui	a5,0x27
   12c00:	39c78513          	addi	a0,a5,924 # 2739c <halt_message+0x65c>
   12c04:	6d9040ef          	jal	17adc <_assert_fail>
   12c08:	fe842783          	lw	a5,-24(s0)
   12c0c:	ffe7f793          	andi	a5,a5,-2
   12c10:	02078263          	beqz	a5,12c34 <cap_reply_cap_ptr_set_capInCDT+0x78>
   12c14:	0002b7b7          	lui	a5,0x2b
   12c18:	f2878693          	addi	a3,a5,-216 # 2af28 <__FUNCTION__.2058>
   12c1c:	33e00613          	li	a2,830
   12c20:	000277b7          	lui	a5,0x27
   12c24:	e7878593          	addi	a1,a5,-392 # 26e78 <halt_message+0x138>
   12c28:	000277b7          	lui	a5,0x27
   12c2c:	24878513          	addi	a0,a5,584 # 27248 <halt_message+0x508>
   12c30:	6ad040ef          	jal	17adc <_assert_fail>
   12c34:	fec42783          	lw	a5,-20(s0)
   12c38:	0047a783          	lw	a5,4(a5)
   12c3c:	ffd7f713          	andi	a4,a5,-3
   12c40:	fec42783          	lw	a5,-20(s0)
   12c44:	00e7a223          	sw	a4,4(a5)
   12c48:	fec42783          	lw	a5,-20(s0)
   12c4c:	0047a703          	lw	a4,4(a5)
   12c50:	fe842783          	lw	a5,-24(s0)
   12c54:	00179793          	slli	a5,a5,0x1
   12c58:	0027f793          	andi	a5,a5,2
   12c5c:	00f76733          	or	a4,a4,a5
   12c60:	fec42783          	lw	a5,-20(s0)
   12c64:	00e7a223          	sw	a4,4(a5)
   12c68:	00000013          	nop
   12c6c:	01c12083          	lw	ra,28(sp)
   12c70:	01812403          	lw	s0,24(sp)
   12c74:	02010113          	addi	sp,sp,32
   12c78:	00008067          	ret

00012c7c <cap_reply_cap_get_capReplyMaster>:
   12c7c:	fe010113          	addi	sp,sp,-32
   12c80:	00112e23          	sw	ra,28(sp)
   12c84:	00812c23          	sw	s0,24(sp)
   12c88:	02010413          	addi	s0,sp,32
   12c8c:	fea42423          	sw	a0,-24(s0)
   12c90:	feb42623          	sw	a1,-20(s0)
   12c94:	fe842783          	lw	a5,-24(s0)
   12c98:	00f7f713          	andi	a4,a5,15
   12c9c:	00800793          	li	a5,8
   12ca0:	02f70263          	beq	a4,a5,12cc4 <cap_reply_cap_get_capReplyMaster+0x48>
   12ca4:	0002a7b7          	lui	a5,0x2a
   12ca8:	66878693          	addi	a3,a5,1640 # 2a668 <__FUNCTION__.2062>
   12cac:	34700613          	li	a2,839
   12cb0:	000277b7          	lui	a5,0x27
   12cb4:	e7878593          	addi	a1,a5,-392 # 26e78 <halt_message+0x138>
   12cb8:	000277b7          	lui	a5,0x27
   12cbc:	36c78513          	addi	a0,a5,876 # 2736c <halt_message+0x62c>
   12cc0:	61d040ef          	jal	17adc <_assert_fail>
   12cc4:	fec42783          	lw	a5,-20(s0)
   12cc8:	0017f793          	andi	a5,a5,1
   12ccc:	00078513          	mv	a0,a5
   12cd0:	01c12083          	lw	ra,28(sp)
   12cd4:	01812403          	lw	s0,24(sp)
   12cd8:	02010113          	addi	sp,sp,32
   12cdc:	00008067          	ret

00012ce0 <cap_reply_cap_get_capTCBPtr>:
   12ce0:	fe010113          	addi	sp,sp,-32
   12ce4:	00112e23          	sw	ra,28(sp)
   12ce8:	00812c23          	sw	s0,24(sp)
   12cec:	02010413          	addi	s0,sp,32
   12cf0:	fea42423          	sw	a0,-24(s0)
   12cf4:	feb42623          	sw	a1,-20(s0)
   12cf8:	fe842783          	lw	a5,-24(s0)
   12cfc:	00f7f713          	andi	a4,a5,15
   12d00:	00800793          	li	a5,8
   12d04:	02f70263          	beq	a4,a5,12d28 <cap_reply_cap_get_capTCBPtr+0x48>
   12d08:	0002a7b7          	lui	a5,0x2a
   12d0c:	68c78693          	addi	a3,a5,1676 # 2a68c <__FUNCTION__.2066>
   12d10:	34f00613          	li	a2,847
   12d14:	000277b7          	lui	a5,0x27
   12d18:	e7878593          	addi	a1,a5,-392 # 26e78 <halt_message+0x138>
   12d1c:	000277b7          	lui	a5,0x27
   12d20:	36c78513          	addi	a0,a5,876 # 2736c <halt_message+0x62c>
   12d24:	5b9040ef          	jal	17adc <_assert_fail>
   12d28:	fe842783          	lw	a5,-24(s0)
   12d2c:	fe07f793          	andi	a5,a5,-32
   12d30:	00078513          	mv	a0,a5
   12d34:	01c12083          	lw	ra,28(sp)
   12d38:	01812403          	lw	s0,24(sp)
   12d3c:	02010113          	addi	sp,sp,32
   12d40:	00008067          	ret

00012d44 <cap_reply_cap_ptr_set_capTCBPtr>:
   12d44:	fe010113          	addi	sp,sp,-32
   12d48:	00112e23          	sw	ra,28(sp)
   12d4c:	00812c23          	sw	s0,24(sp)
   12d50:	02010413          	addi	s0,sp,32
   12d54:	fea42623          	sw	a0,-20(s0)
   12d58:	feb42423          	sw	a1,-24(s0)
   12d5c:	fec42783          	lw	a5,-20(s0)
   12d60:	0007a783          	lw	a5,0(a5)
   12d64:	00f7f713          	andi	a4,a5,15
   12d68:	00800793          	li	a5,8
   12d6c:	02f70263          	beq	a4,a5,12d90 <cap_reply_cap_ptr_set_capTCBPtr+0x4c>
   12d70:	0002b7b7          	lui	a5,0x2b
   12d74:	f0878693          	addi	a3,a5,-248 # 2af08 <__FUNCTION__.2071>
   12d78:	35800613          	li	a2,856
   12d7c:	000277b7          	lui	a5,0x27
   12d80:	e7878593          	addi	a1,a5,-392 # 26e78 <halt_message+0x138>
   12d84:	000277b7          	lui	a5,0x27
   12d88:	39c78513          	addi	a0,a5,924 # 2739c <halt_message+0x65c>
   12d8c:	551040ef          	jal	17adc <_assert_fail>
   12d90:	fe842783          	lw	a5,-24(s0)
   12d94:	01f7f793          	andi	a5,a5,31
   12d98:	02078263          	beqz	a5,12dbc <cap_reply_cap_ptr_set_capTCBPtr+0x78>
   12d9c:	0002b7b7          	lui	a5,0x2b
   12da0:	f0878693          	addi	a3,a5,-248 # 2af08 <__FUNCTION__.2071>
   12da4:	35b00613          	li	a2,859
   12da8:	000277b7          	lui	a5,0x27
   12dac:	e7878593          	addi	a1,a5,-392 # 26e78 <halt_message+0x138>
   12db0:	000277b7          	lui	a5,0x27
   12db4:	3d078513          	addi	a0,a5,976 # 273d0 <halt_message+0x690>
   12db8:	525040ef          	jal	17adc <_assert_fail>
   12dbc:	fec42783          	lw	a5,-20(s0)
   12dc0:	0007a783          	lw	a5,0(a5)
   12dc4:	01f7f713          	andi	a4,a5,31
   12dc8:	fec42783          	lw	a5,-20(s0)
   12dcc:	00e7a023          	sw	a4,0(a5)
   12dd0:	fec42783          	lw	a5,-20(s0)
   12dd4:	0007a703          	lw	a4,0(a5)
   12dd8:	fe842783          	lw	a5,-24(s0)
   12ddc:	fe07f793          	andi	a5,a5,-32
   12de0:	00f76733          	or	a4,a4,a5
   12de4:	fec42783          	lw	a5,-20(s0)
   12de8:	00e7a023          	sw	a4,0(a5)
   12dec:	00000013          	nop
   12df0:	01c12083          	lw	ra,28(sp)
   12df4:	01812403          	lw	s0,24(sp)
   12df8:	02010113          	addi	sp,sp,32
   12dfc:	00008067          	ret

00012e00 <cap_cnode_cap_new>:
   12e00:	fd010113          	addi	sp,sp,-48
   12e04:	02112623          	sw	ra,44(sp)
   12e08:	02812423          	sw	s0,40(sp)
   12e0c:	03010413          	addi	s0,sp,48
   12e10:	fca42e23          	sw	a0,-36(s0)
   12e14:	fcb42c23          	sw	a1,-40(s0)
   12e18:	fcc42a23          	sw	a2,-44(s0)
   12e1c:	fcd42823          	sw	a3,-48(s0)
   12e20:	fe042023          	sw	zero,-32(s0)
   12e24:	fe042223          	sw	zero,-28(s0)
   12e28:	fdc42783          	lw	a5,-36(s0)
   12e2c:	fe07f793          	andi	a5,a5,-32
   12e30:	02078263          	beqz	a5,12e54 <cap_cnode_cap_new+0x54>
   12e34:	0002a7b7          	lui	a5,0x2a
   12e38:	75478693          	addi	a3,a5,1876 # 2a754 <__FUNCTION__.2079>
   12e3c:	36900613          	li	a2,873
   12e40:	000277b7          	lui	a5,0x27
   12e44:	e7878593          	addi	a1,a5,-392 # 26e78 <halt_message+0x138>
   12e48:	000277b7          	lui	a5,0x27
   12e4c:	3f078513          	addi	a0,a5,1008 # 273f0 <halt_message+0x6b0>
   12e50:	48d040ef          	jal	17adc <_assert_fail>
   12e54:	fe442703          	lw	a4,-28(s0)
   12e58:	fdc42783          	lw	a5,-36(s0)
   12e5c:	01f7f793          	andi	a5,a5,31
   12e60:	00f767b3          	or	a5,a4,a5
   12e64:	fef42223          	sw	a5,-28(s0)
   12e68:	fd842783          	lw	a5,-40(s0)
   12e6c:	fe07f793          	andi	a5,a5,-32
   12e70:	02078263          	beqz	a5,12e94 <cap_cnode_cap_new+0x94>
   12e74:	0002a7b7          	lui	a5,0x2a
   12e78:	75478693          	addi	a3,a5,1876 # 2a754 <__FUNCTION__.2079>
   12e7c:	36c00613          	li	a2,876
   12e80:	000277b7          	lui	a5,0x27
   12e84:	e7878593          	addi	a1,a5,-392 # 26e78 <halt_message+0x138>
   12e88:	000277b7          	lui	a5,0x27
   12e8c:	41078513          	addi	a0,a5,1040 # 27410 <halt_message+0x6d0>
   12e90:	44d040ef          	jal	17adc <_assert_fail>
   12e94:	fe442703          	lw	a4,-28(s0)
   12e98:	fd842783          	lw	a5,-40(s0)
   12e9c:	01b79793          	slli	a5,a5,0x1b
   12ea0:	00f767b3          	or	a5,a4,a5
   12ea4:	fef42223          	sw	a5,-28(s0)
   12ea8:	fd442703          	lw	a4,-44(s0)
   12eac:	fffc07b7          	lui	a5,0xfffc0
   12eb0:	00f777b3          	and	a5,a4,a5
   12eb4:	02078263          	beqz	a5,12ed8 <cap_cnode_cap_new+0xd8>
   12eb8:	0002a7b7          	lui	a5,0x2a
   12ebc:	75478693          	addi	a3,a5,1876 # 2a754 <__FUNCTION__.2079>
   12ec0:	36f00613          	li	a2,879
   12ec4:	000277b7          	lui	a5,0x27
   12ec8:	e7878593          	addi	a1,a5,-392 # 26e78 <halt_message+0x138>
   12ecc:	000277b7          	lui	a5,0x27
   12ed0:	43478513          	addi	a0,a5,1076 # 27434 <halt_message+0x6f4>
   12ed4:	409040ef          	jal	17adc <_assert_fail>
   12ed8:	fe442703          	lw	a4,-28(s0)
   12edc:	fd442683          	lw	a3,-44(s0)
   12ee0:	000407b7          	lui	a5,0x40
   12ee4:	fff78793          	addi	a5,a5,-1 # 3ffff <ki_end+0xafff>
   12ee8:	00f6f7b3          	and	a5,a3,a5
   12eec:	00579793          	slli	a5,a5,0x5
   12ef0:	00f767b3          	or	a5,a4,a5
   12ef4:	fef42223          	sw	a5,-28(s0)
   12ef8:	fd042783          	lw	a5,-48(s0)
   12efc:	01f7f793          	andi	a5,a5,31
   12f00:	02078263          	beqz	a5,12f24 <cap_cnode_cap_new+0x124>
   12f04:	0002a7b7          	lui	a5,0x2a
   12f08:	75478693          	addi	a3,a5,1876 # 2a754 <__FUNCTION__.2079>
   12f0c:	37200613          	li	a2,882
   12f10:	000277b7          	lui	a5,0x27
   12f14:	e7878593          	addi	a1,a5,-392 # 26e78 <halt_message+0x138>
   12f18:	000277b7          	lui	a5,0x27
   12f1c:	45478513          	addi	a0,a5,1108 # 27454 <halt_message+0x714>
   12f20:	3bd040ef          	jal	17adc <_assert_fail>
   12f24:	fe042703          	lw	a4,-32(s0)
   12f28:	fd042783          	lw	a5,-48(s0)
   12f2c:	fe07f793          	andi	a5,a5,-32
   12f30:	00f767b3          	or	a5,a4,a5
   12f34:	fef42023          	sw	a5,-32(s0)
   12f38:	fe042783          	lw	a5,-32(s0)
   12f3c:	00a7e793          	ori	a5,a5,10
   12f40:	fef42023          	sw	a5,-32(s0)
   12f44:	fe042783          	lw	a5,-32(s0)
   12f48:	fef42423          	sw	a5,-24(s0)
   12f4c:	fe442783          	lw	a5,-28(s0)
   12f50:	fef42623          	sw	a5,-20(s0)
   12f54:	00000713          	li	a4,0
   12f58:	fe842703          	lw	a4,-24(s0)
   12f5c:	00000793          	li	a5,0
   12f60:	fec42783          	lw	a5,-20(s0)
   12f64:	00070813          	mv	a6,a4
   12f68:	00078893          	mv	a7,a5
   12f6c:	00080713          	mv	a4,a6
   12f70:	00088793          	mv	a5,a7
   12f74:	00070513          	mv	a0,a4
   12f78:	00078593          	mv	a1,a5
   12f7c:	02c12083          	lw	ra,44(sp)
   12f80:	02812403          	lw	s0,40(sp)
   12f84:	03010113          	addi	sp,sp,48
   12f88:	00008067          	ret

00012f8c <cap_cnode_cap_get_capCNodeGuardSize>:
   12f8c:	fe010113          	addi	sp,sp,-32
   12f90:	00112e23          	sw	ra,28(sp)
   12f94:	00812c23          	sw	s0,24(sp)
   12f98:	02010413          	addi	s0,sp,32
   12f9c:	fea42423          	sw	a0,-24(s0)
   12fa0:	feb42623          	sw	a1,-20(s0)
   12fa4:	fe842783          	lw	a5,-24(s0)
   12fa8:	00f7f713          	andi	a4,a5,15
   12fac:	00a00793          	li	a5,10
   12fb0:	02f70263          	beq	a4,a5,12fd4 <cap_cnode_cap_get_capCNodeGuardSize+0x48>
   12fb4:	0002b7b7          	lui	a5,0x2b
   12fb8:	b9478693          	addi	a3,a5,-1132 # 2ab94 <__FUNCTION__.2083>
   12fbc:	37e00613          	li	a2,894
   12fc0:	000277b7          	lui	a5,0x27
   12fc4:	e7878593          	addi	a1,a5,-392 # 26e78 <halt_message+0x138>
   12fc8:	000277b7          	lui	a5,0x27
   12fcc:	47878513          	addi	a0,a5,1144 # 27478 <halt_message+0x738>
   12fd0:	30d040ef          	jal	17adc <_assert_fail>
   12fd4:	fec42783          	lw	a5,-20(s0)
   12fd8:	01b7d793          	srli	a5,a5,0x1b
   12fdc:	00078513          	mv	a0,a5
   12fe0:	01c12083          	lw	ra,28(sp)
   12fe4:	01812403          	lw	s0,24(sp)
   12fe8:	02010113          	addi	sp,sp,32
   12fec:	00008067          	ret

00012ff0 <cap_cnode_cap_set_capCNodeGuardSize>:
   12ff0:	fd010113          	addi	sp,sp,-48
   12ff4:	02112623          	sw	ra,44(sp)
   12ff8:	02812423          	sw	s0,40(sp)
   12ffc:	03010413          	addi	s0,sp,48
   13000:	fca42c23          	sw	a0,-40(s0)
   13004:	fcb42e23          	sw	a1,-36(s0)
   13008:	fcc42a23          	sw	a2,-44(s0)
   1300c:	fd842783          	lw	a5,-40(s0)
   13010:	00f7f713          	andi	a4,a5,15
   13014:	00a00793          	li	a5,10
   13018:	02f70263          	beq	a4,a5,1303c <cap_cnode_cap_set_capCNodeGuardSize+0x4c>
   1301c:	0002b7b7          	lui	a5,0x2b
   13020:	1bc78693          	addi	a3,a5,444 # 2b1bc <__FUNCTION__.2088>
   13024:	38600613          	li	a2,902
   13028:	000277b7          	lui	a5,0x27
   1302c:	e7878593          	addi	a1,a5,-392 # 26e78 <halt_message+0x138>
   13030:	000277b7          	lui	a5,0x27
   13034:	47878513          	addi	a0,a5,1144 # 27478 <halt_message+0x738>
   13038:	2a5040ef          	jal	17adc <_assert_fail>
   1303c:	fdc42703          	lw	a4,-36(s0)
   13040:	080007b7          	lui	a5,0x8000
   13044:	fff78793          	addi	a5,a5,-1 # 7ffffff <ki_end+0x7fcafff>
   13048:	00f777b3          	and	a5,a4,a5
   1304c:	fcf42e23          	sw	a5,-36(s0)
   13050:	fdc42703          	lw	a4,-36(s0)
   13054:	fd442783          	lw	a5,-44(s0)
   13058:	01b79793          	slli	a5,a5,0x1b
   1305c:	00f767b3          	or	a5,a4,a5
   13060:	fcf42e23          	sw	a5,-36(s0)
   13064:	fd842783          	lw	a5,-40(s0)
   13068:	fef42423          	sw	a5,-24(s0)
   1306c:	fdc42783          	lw	a5,-36(s0)
   13070:	fef42623          	sw	a5,-20(s0)
   13074:	00000713          	li	a4,0
   13078:	fe842703          	lw	a4,-24(s0)
   1307c:	00000793          	li	a5,0
   13080:	fec42783          	lw	a5,-20(s0)
   13084:	00070813          	mv	a6,a4
   13088:	00078893          	mv	a7,a5
   1308c:	00080713          	mv	a4,a6
   13090:	00088793          	mv	a5,a7
   13094:	00070513          	mv	a0,a4
   13098:	00078593          	mv	a1,a5
   1309c:	02c12083          	lw	ra,44(sp)
   130a0:	02812403          	lw	s0,40(sp)
   130a4:	03010113          	addi	sp,sp,48
   130a8:	00008067          	ret

000130ac <cap_cnode_cap_set_capCNodeGuard>:
   130ac:	fd010113          	addi	sp,sp,-48
   130b0:	02112623          	sw	ra,44(sp)
   130b4:	02812423          	sw	s0,40(sp)
   130b8:	03010413          	addi	s0,sp,48
   130bc:	fca42c23          	sw	a0,-40(s0)
   130c0:	fcb42e23          	sw	a1,-36(s0)
   130c4:	fcc42a23          	sw	a2,-44(s0)
   130c8:	fd842783          	lw	a5,-40(s0)
   130cc:	00f7f713          	andi	a4,a5,15
   130d0:	00a00793          	li	a5,10
   130d4:	02f70263          	beq	a4,a5,130f8 <cap_cnode_cap_set_capCNodeGuard+0x4c>
   130d8:	0002b7b7          	lui	a5,0x2b
   130dc:	19c78693          	addi	a3,a5,412 # 2b19c <__FUNCTION__.2093>
   130e0:	39200613          	li	a2,914
   130e4:	000277b7          	lui	a5,0x27
   130e8:	e7878593          	addi	a1,a5,-392 # 26e78 <halt_message+0x138>
   130ec:	000277b7          	lui	a5,0x27
   130f0:	47878513          	addi	a0,a5,1144 # 27478 <halt_message+0x738>
   130f4:	1e9040ef          	jal	17adc <_assert_fail>
   130f8:	fd442703          	lw	a4,-44(s0)
   130fc:	fffc07b7          	lui	a5,0xfffc0
   13100:	00f777b3          	and	a5,a4,a5
   13104:	02078263          	beqz	a5,13128 <cap_cnode_cap_set_capCNodeGuard+0x7c>
   13108:	0002b7b7          	lui	a5,0x2b
   1310c:	19c78693          	addi	a3,a5,412 # 2b19c <__FUNCTION__.2093>
   13110:	39400613          	li	a2,916
   13114:	000277b7          	lui	a5,0x27
   13118:	e7878593          	addi	a1,a5,-392 # 26e78 <halt_message+0x138>
   1311c:	000277b7          	lui	a5,0x27
   13120:	4a878513          	addi	a0,a5,1192 # 274a8 <halt_message+0x768>
   13124:	1b9040ef          	jal	17adc <_assert_fail>
   13128:	fdc42703          	lw	a4,-36(s0)
   1312c:	ff8007b7          	lui	a5,0xff800
   13130:	01f78793          	addi	a5,a5,31 # ff80001f <ki_end+0xff7cb01f>
   13134:	00f777b3          	and	a5,a4,a5
   13138:	fcf42e23          	sw	a5,-36(s0)
   1313c:	fdc42703          	lw	a4,-36(s0)
   13140:	fd442783          	lw	a5,-44(s0)
   13144:	00579693          	slli	a3,a5,0x5
   13148:	008007b7          	lui	a5,0x800
   1314c:	fe078793          	addi	a5,a5,-32 # 7fffe0 <ki_end+0x7cafe0>
   13150:	00f6f7b3          	and	a5,a3,a5
   13154:	00f767b3          	or	a5,a4,a5
   13158:	fcf42e23          	sw	a5,-36(s0)
   1315c:	fd842783          	lw	a5,-40(s0)
   13160:	fef42423          	sw	a5,-24(s0)
   13164:	fdc42783          	lw	a5,-36(s0)
   13168:	fef42623          	sw	a5,-20(s0)
   1316c:	00000713          	li	a4,0
   13170:	fe842703          	lw	a4,-24(s0)
   13174:	00000793          	li	a5,0
   13178:	fec42783          	lw	a5,-20(s0)
   1317c:	00070813          	mv	a6,a4
   13180:	00078893          	mv	a7,a5
   13184:	00080713          	mv	a4,a6
   13188:	00088793          	mv	a5,a7
   1318c:	00070513          	mv	a0,a4
   13190:	00078593          	mv	a1,a5
   13194:	02c12083          	lw	ra,44(sp)
   13198:	02812403          	lw	s0,40(sp)
   1319c:	03010113          	addi	sp,sp,48
   131a0:	00008067          	ret

000131a4 <cap_cnode_cap_get_capCNodeRadix>:
   131a4:	fe010113          	addi	sp,sp,-32
   131a8:	00112e23          	sw	ra,28(sp)
   131ac:	00812c23          	sw	s0,24(sp)
   131b0:	02010413          	addi	s0,sp,32
   131b4:	fea42423          	sw	a0,-24(s0)
   131b8:	feb42623          	sw	a1,-20(s0)
   131bc:	fe842783          	lw	a5,-24(s0)
   131c0:	00f7f713          	andi	a4,a5,15
   131c4:	00a00793          	li	a5,10
   131c8:	02f70263          	beq	a4,a5,131ec <cap_cnode_cap_get_capCNodeRadix+0x48>
   131cc:	0002b7b7          	lui	a5,0x2b
   131d0:	95878693          	addi	a3,a5,-1704 # 2a958 <__FUNCTION__.2097>
   131d4:	39e00613          	li	a2,926
   131d8:	000277b7          	lui	a5,0x27
   131dc:	e7878593          	addi	a1,a5,-392 # 26e78 <halt_message+0x138>
   131e0:	000277b7          	lui	a5,0x27
   131e4:	47878513          	addi	a0,a5,1144 # 27478 <halt_message+0x738>
   131e8:	0f5040ef          	jal	17adc <_assert_fail>
   131ec:	fec42783          	lw	a5,-20(s0)
   131f0:	01f7f793          	andi	a5,a5,31
   131f4:	00078513          	mv	a0,a5
   131f8:	01c12083          	lw	ra,28(sp)
   131fc:	01812403          	lw	s0,24(sp)
   13200:	02010113          	addi	sp,sp,32
   13204:	00008067          	ret

00013208 <cap_cnode_cap_get_capCNodePtr>:
   13208:	fe010113          	addi	sp,sp,-32
   1320c:	00112e23          	sw	ra,28(sp)
   13210:	00812c23          	sw	s0,24(sp)
   13214:	02010413          	addi	s0,sp,32
   13218:	fea42423          	sw	a0,-24(s0)
   1321c:	feb42623          	sw	a1,-20(s0)
   13220:	fe842783          	lw	a5,-24(s0)
   13224:	00f7f713          	andi	a4,a5,15
   13228:	00a00793          	li	a5,10
   1322c:	02f70263          	beq	a4,a5,13250 <cap_cnode_cap_get_capCNodePtr+0x48>
   13230:	0002a7b7          	lui	a5,0x2a
   13234:	7a478693          	addi	a3,a5,1956 # 2a7a4 <__FUNCTION__.2101>
   13238:	3a600613          	li	a2,934
   1323c:	000277b7          	lui	a5,0x27
   13240:	e7878593          	addi	a1,a5,-392 # 26e78 <halt_message+0x138>
   13244:	000277b7          	lui	a5,0x27
   13248:	47878513          	addi	a0,a5,1144 # 27478 <halt_message+0x738>
   1324c:	091040ef          	jal	17adc <_assert_fail>
   13250:	fe842783          	lw	a5,-24(s0)
   13254:	fe07f793          	andi	a5,a5,-32
   13258:	00078513          	mv	a0,a5
   1325c:	01c12083          	lw	ra,28(sp)
   13260:	01812403          	lw	s0,24(sp)
   13264:	02010113          	addi	sp,sp,32
   13268:	00008067          	ret

0001326c <cap_thread_cap_new>:
   1326c:	fd010113          	addi	sp,sp,-48
   13270:	02112623          	sw	ra,44(sp)
   13274:	02812423          	sw	s0,40(sp)
   13278:	03010413          	addi	s0,sp,48
   1327c:	fca42e23          	sw	a0,-36(s0)
   13280:	fe042023          	sw	zero,-32(s0)
   13284:	fe042223          	sw	zero,-28(s0)
   13288:	fdc42783          	lw	a5,-36(s0)
   1328c:	00f7f793          	andi	a5,a5,15
   13290:	02078263          	beqz	a5,132b4 <cap_thread_cap_new+0x48>
   13294:	0002b7b7          	lui	a5,0x2b
   13298:	8a878693          	addi	a3,a5,-1880 # 2a8a8 <__FUNCTION__.2106>
   1329c:	3b300613          	li	a2,947
   132a0:	000277b7          	lui	a5,0x27
   132a4:	e7878593          	addi	a1,a5,-392 # 26e78 <halt_message+0x138>
   132a8:	000277b7          	lui	a5,0x27
   132ac:	4c478513          	addi	a0,a5,1220 # 274c4 <halt_message+0x784>
   132b0:	02d040ef          	jal	17adc <_assert_fail>
   132b4:	fe042703          	lw	a4,-32(s0)
   132b8:	fdc42783          	lw	a5,-36(s0)
   132bc:	ff07f793          	andi	a5,a5,-16
   132c0:	00f767b3          	or	a5,a4,a5
   132c4:	fef42023          	sw	a5,-32(s0)
   132c8:	fe042783          	lw	a5,-32(s0)
   132cc:	00c7e793          	ori	a5,a5,12
   132d0:	fef42023          	sw	a5,-32(s0)
   132d4:	fe042783          	lw	a5,-32(s0)
   132d8:	fef42423          	sw	a5,-24(s0)
   132dc:	fe442783          	lw	a5,-28(s0)
   132e0:	fef42623          	sw	a5,-20(s0)
   132e4:	00000713          	li	a4,0
   132e8:	fe842703          	lw	a4,-24(s0)
   132ec:	00000793          	li	a5,0
   132f0:	fec42783          	lw	a5,-20(s0)
   132f4:	00070613          	mv	a2,a4
   132f8:	00078693          	mv	a3,a5
   132fc:	00060713          	mv	a4,a2
   13300:	00068793          	mv	a5,a3
   13304:	00070513          	mv	a0,a4
   13308:	00078593          	mv	a1,a5
   1330c:	02c12083          	lw	ra,44(sp)
   13310:	02812403          	lw	s0,40(sp)
   13314:	03010113          	addi	sp,sp,48
   13318:	00008067          	ret

0001331c <cap_thread_cap_get_capTCBPtr>:
   1331c:	fe010113          	addi	sp,sp,-32
   13320:	00112e23          	sw	ra,28(sp)
   13324:	00812c23          	sw	s0,24(sp)
   13328:	02010413          	addi	s0,sp,32
   1332c:	fea42423          	sw	a0,-24(s0)
   13330:	feb42623          	sw	a1,-20(s0)
   13334:	fe842783          	lw	a5,-24(s0)
   13338:	00f7f713          	andi	a4,a5,15
   1333c:	00c00793          	li	a5,12
   13340:	02f70263          	beq	a4,a5,13364 <cap_thread_cap_get_capTCBPtr+0x48>
   13344:	0002a7b7          	lui	a5,0x2a
   13348:	7c478693          	addi	a3,a5,1988 # 2a7c4 <__FUNCTION__.2110>
   1334c:	3bf00613          	li	a2,959
   13350:	000277b7          	lui	a5,0x27
   13354:	e7878593          	addi	a1,a5,-392 # 26e78 <halt_message+0x138>
   13358:	000277b7          	lui	a5,0x27
   1335c:	4e478513          	addi	a0,a5,1252 # 274e4 <halt_message+0x7a4>
   13360:	77c040ef          	jal	17adc <_assert_fail>
   13364:	fe842783          	lw	a5,-24(s0)
   13368:	ff07f793          	andi	a5,a5,-16
   1336c:	00078513          	mv	a0,a5
   13370:	01c12083          	lw	ra,28(sp)
   13374:	01812403          	lw	s0,24(sp)
   13378:	02010113          	addi	sp,sp,32
   1337c:	00008067          	ret

00013380 <cap_frame_cap_get_capFMappedObjectHigh>:
   13380:	fe010113          	addi	sp,sp,-32
   13384:	00112e23          	sw	ra,28(sp)
   13388:	00812c23          	sw	s0,24(sp)
   1338c:	02010413          	addi	s0,sp,32
   13390:	fea42423          	sw	a0,-24(s0)
   13394:	feb42623          	sw	a1,-20(s0)
   13398:	fe842783          	lw	a5,-24(s0)
   1339c:	00f7f713          	andi	a4,a5,15
   133a0:	00100793          	li	a5,1
   133a4:	02f70263          	beq	a4,a5,133c8 <cap_frame_cap_get_capFMappedObjectHigh+0x48>
   133a8:	0002b7b7          	lui	a5,0x2b
   133ac:	a5478693          	addi	a3,a5,-1452 # 2aa54 <__FUNCTION__.2114>
   133b0:	3c700613          	li	a2,967
   133b4:	000277b7          	lui	a5,0x27
   133b8:	e7878593          	addi	a1,a5,-392 # 26e78 <halt_message+0x138>
   133bc:	000277b7          	lui	a5,0x27
   133c0:	51478513          	addi	a0,a5,1300 # 27514 <halt_message+0x7d4>
   133c4:	718040ef          	jal	17adc <_assert_fail>
   133c8:	fec42783          	lw	a5,-20(s0)
   133cc:	00c7d793          	srli	a5,a5,0xc
   133d0:	00078513          	mv	a0,a5
   133d4:	01c12083          	lw	ra,28(sp)
   133d8:	01812403          	lw	s0,24(sp)
   133dc:	02010113          	addi	sp,sp,32
   133e0:	00008067          	ret

000133e4 <cap_frame_cap_get_capFMappedIndex>:
   133e4:	fe010113          	addi	sp,sp,-32
   133e8:	00112e23          	sw	ra,28(sp)
   133ec:	00812c23          	sw	s0,24(sp)
   133f0:	02010413          	addi	s0,sp,32
   133f4:	fea42423          	sw	a0,-24(s0)
   133f8:	feb42623          	sw	a1,-20(s0)
   133fc:	fe842783          	lw	a5,-24(s0)
   13400:	00f7f713          	andi	a4,a5,15
   13404:	00100793          	li	a5,1
   13408:	02f70263          	beq	a4,a5,1342c <cap_frame_cap_get_capFMappedIndex+0x48>
   1340c:	0002b7b7          	lui	a5,0x2b
   13410:	a3078693          	addi	a3,a5,-1488 # 2aa30 <__FUNCTION__.2128>
   13414:	3e800613          	li	a2,1000
   13418:	000277b7          	lui	a5,0x27
   1341c:	e7878593          	addi	a1,a5,-392 # 26e78 <halt_message+0x138>
   13420:	000277b7          	lui	a5,0x27
   13424:	51478513          	addi	a0,a5,1300 # 27514 <halt_message+0x7d4>
   13428:	6b4040ef          	jal	17adc <_assert_fail>
   1342c:	fec42703          	lw	a4,-20(s0)
   13430:	000017b7          	lui	a5,0x1
   13434:	fff78793          	addi	a5,a5,-1 # fff <KERNEL_BASE+0xeff>
   13438:	00f777b3          	and	a5,a4,a5
   1343c:	00078513          	mv	a0,a5
   13440:	01c12083          	lw	ra,28(sp)
   13444:	01812403          	lw	s0,24(sp)
   13448:	02010113          	addi	sp,sp,32
   1344c:	00008067          	ret

00013450 <cap_frame_cap_get_capFSize>:
   13450:	fe010113          	addi	sp,sp,-32
   13454:	00112e23          	sw	ra,28(sp)
   13458:	00812c23          	sw	s0,24(sp)
   1345c:	02010413          	addi	s0,sp,32
   13460:	fea42423          	sw	a0,-24(s0)
   13464:	feb42623          	sw	a1,-20(s0)
   13468:	fe842783          	lw	a5,-24(s0)
   1346c:	00f7f713          	andi	a4,a5,15
   13470:	00100793          	li	a5,1
   13474:	02f70263          	beq	a4,a5,13498 <cap_frame_cap_get_capFSize+0x48>
   13478:	0002b7b7          	lui	a5,0x2b
   1347c:	99078693          	addi	a3,a5,-1648 # 2a990 <__FUNCTION__.2132>
   13480:	3f000613          	li	a2,1008
   13484:	000277b7          	lui	a5,0x27
   13488:	e7878593          	addi	a1,a5,-392 # 26e78 <halt_message+0x138>
   1348c:	000277b7          	lui	a5,0x27
   13490:	51478513          	addi	a0,a5,1300 # 27514 <halt_message+0x7d4>
   13494:	648040ef          	jal	17adc <_assert_fail>
   13498:	fe842783          	lw	a5,-24(s0)
   1349c:	01d7d793          	srli	a5,a5,0x1d
   134a0:	00078513          	mv	a0,a5
   134a4:	01c12083          	lw	ra,28(sp)
   134a8:	01812403          	lw	s0,24(sp)
   134ac:	02010113          	addi	sp,sp,32
   134b0:	00008067          	ret

000134b4 <cap_frame_cap_get_capFMappedObjectLow>:
   134b4:	fe010113          	addi	sp,sp,-32
   134b8:	00112e23          	sw	ra,28(sp)
   134bc:	00812c23          	sw	s0,24(sp)
   134c0:	02010413          	addi	s0,sp,32
   134c4:	fea42423          	sw	a0,-24(s0)
   134c8:	feb42623          	sw	a1,-20(s0)
   134cc:	fe842783          	lw	a5,-24(s0)
   134d0:	00f7f713          	andi	a4,a5,15
   134d4:	00100793          	li	a5,1
   134d8:	02f70263          	beq	a4,a5,134fc <cap_frame_cap_get_capFMappedObjectLow+0x48>
   134dc:	0002b7b7          	lui	a5,0x2b
   134e0:	a7c78693          	addi	a3,a5,-1412 # 2aa7c <__FUNCTION__.2136>
   134e4:	3f800613          	li	a2,1016
   134e8:	000277b7          	lui	a5,0x27
   134ec:	e7878593          	addi	a1,a5,-392 # 26e78 <halt_message+0x138>
   134f0:	000277b7          	lui	a5,0x27
   134f4:	51478513          	addi	a0,a5,1300 # 27514 <halt_message+0x7d4>
   134f8:	5e4040ef          	jal	17adc <_assert_fail>
   134fc:	fe842703          	lw	a4,-24(s0)
   13500:	030007b7          	lui	a5,0x3000
   13504:	00f777b3          	and	a5,a4,a5
   13508:	0187d793          	srli	a5,a5,0x18
   1350c:	00078513          	mv	a0,a5
   13510:	01c12083          	lw	ra,28(sp)
   13514:	01812403          	lw	s0,24(sp)
   13518:	02010113          	addi	sp,sp,32
   1351c:	00008067          	ret

00013520 <cap_frame_cap_get_capFBasePtr>:
   13520:	fe010113          	addi	sp,sp,-32
   13524:	00112e23          	sw	ra,28(sp)
   13528:	00812c23          	sw	s0,24(sp)
   1352c:	02010413          	addi	s0,sp,32
   13530:	fea42423          	sw	a0,-24(s0)
   13534:	feb42623          	sw	a1,-20(s0)
   13538:	fe842783          	lw	a5,-24(s0)
   1353c:	00f7f713          	andi	a4,a5,15
   13540:	00100793          	li	a5,1
   13544:	02f70263          	beq	a4,a5,13568 <cap_frame_cap_get_capFBasePtr+0x48>
   13548:	0002b7b7          	lui	a5,0x2b
   1354c:	83c78693          	addi	a3,a5,-1988 # 2a83c <__FUNCTION__.2150>
   13550:	41900613          	li	a2,1049
   13554:	000277b7          	lui	a5,0x27
   13558:	e7878593          	addi	a1,a5,-392 # 26e78 <halt_message+0x138>
   1355c:	000277b7          	lui	a5,0x27
   13560:	51478513          	addi	a0,a5,1300 # 27514 <halt_message+0x7d4>
   13564:	578040ef          	jal	17adc <_assert_fail>
   13568:	fe842703          	lw	a4,-24(s0)
   1356c:	010007b7          	lui	a5,0x1000
   13570:	ff078793          	addi	a5,a5,-16 # fffff0 <ki_end+0xfcaff0>
   13574:	00f777b3          	and	a5,a4,a5
   13578:	00879793          	slli	a5,a5,0x8
   1357c:	00078513          	mv	a0,a5
   13580:	01c12083          	lw	ra,28(sp)
   13584:	01812403          	lw	s0,24(sp)
   13588:	02010113          	addi	sp,sp,32
   1358c:	00008067          	ret

00013590 <cap_page_table_cap_get_capPTMappedObject>:
   13590:	fe010113          	addi	sp,sp,-32
   13594:	00112e23          	sw	ra,28(sp)
   13598:	00812c23          	sw	s0,24(sp)
   1359c:	02010413          	addi	s0,sp,32
   135a0:	fea42423          	sw	a0,-24(s0)
   135a4:	feb42623          	sw	a1,-20(s0)
   135a8:	fe842783          	lw	a5,-24(s0)
   135ac:	00f7f713          	andi	a4,a5,15
   135b0:	00300793          	li	a5,3
   135b4:	02f70263          	beq	a4,a5,135d8 <cap_page_table_cap_get_capPTMappedObject+0x48>
   135b8:	0002b7b7          	lui	a5,0x2b
   135bc:	acc78693          	addi	a3,a5,-1332 # 2aacc <__FUNCTION__.2154>
   135c0:	42100613          	li	a2,1057
   135c4:	000277b7          	lui	a5,0x27
   135c8:	e7878593          	addi	a1,a5,-392 # 26e78 <halt_message+0x138>
   135cc:	000277b7          	lui	a5,0x27
   135d0:	54478513          	addi	a0,a5,1348 # 27544 <halt_message+0x804>
   135d4:	508040ef          	jal	17adc <_assert_fail>
   135d8:	fec42703          	lw	a4,-20(s0)
   135dc:	fffff7b7          	lui	a5,0xfffff
   135e0:	00f777b3          	and	a5,a4,a5
   135e4:	00078513          	mv	a0,a5
   135e8:	01c12083          	lw	ra,28(sp)
   135ec:	01812403          	lw	s0,24(sp)
   135f0:	02010113          	addi	sp,sp,32
   135f4:	00008067          	ret

000135f8 <cap_page_table_cap_get_capPTMappedIndex>:
   135f8:	fe010113          	addi	sp,sp,-32
   135fc:	00112e23          	sw	ra,28(sp)
   13600:	00812c23          	sw	s0,24(sp)
   13604:	02010413          	addi	s0,sp,32
   13608:	fea42423          	sw	a0,-24(s0)
   1360c:	feb42623          	sw	a1,-20(s0)
   13610:	fe842783          	lw	a5,-24(s0)
   13614:	00f7f713          	andi	a4,a5,15
   13618:	00300793          	li	a5,3
   1361c:	02f70263          	beq	a4,a5,13640 <cap_page_table_cap_get_capPTMappedIndex+0x48>
   13620:	0002b7b7          	lui	a5,0x2b
   13624:	aa478693          	addi	a3,a5,-1372 # 2aaa4 <__FUNCTION__.2158>
   13628:	42900613          	li	a2,1065
   1362c:	000277b7          	lui	a5,0x27
   13630:	e7878593          	addi	a1,a5,-392 # 26e78 <halt_message+0x138>
   13634:	000277b7          	lui	a5,0x27
   13638:	54478513          	addi	a0,a5,1348 # 27544 <halt_message+0x804>
   1363c:	4a0040ef          	jal	17adc <_assert_fail>
   13640:	fec42703          	lw	a4,-20(s0)
   13644:	000017b7          	lui	a5,0x1
   13648:	fff78793          	addi	a5,a5,-1 # fff <KERNEL_BASE+0xeff>
   1364c:	00f777b3          	and	a5,a4,a5
   13650:	00078513          	mv	a0,a5
   13654:	01c12083          	lw	ra,28(sp)
   13658:	01812403          	lw	s0,24(sp)
   1365c:	02010113          	addi	sp,sp,32
   13660:	00008067          	ret

00013664 <cap_page_table_cap_get_capPTBasePtr>:
   13664:	fe010113          	addi	sp,sp,-32
   13668:	00112e23          	sw	ra,28(sp)
   1366c:	00812c23          	sw	s0,24(sp)
   13670:	02010413          	addi	s0,sp,32
   13674:	fea42423          	sw	a0,-24(s0)
   13678:	feb42623          	sw	a1,-20(s0)
   1367c:	fe842783          	lw	a5,-24(s0)
   13680:	00f7f713          	andi	a4,a5,15
   13684:	00300793          	li	a5,3
   13688:	02f70263          	beq	a4,a5,136ac <cap_page_table_cap_get_capPTBasePtr+0x48>
   1368c:	0002b7b7          	lui	a5,0x2b
   13690:	85c78693          	addi	a3,a5,-1956 # 2a85c <__FUNCTION__.2162>
   13694:	43100613          	li	a2,1073
   13698:	000277b7          	lui	a5,0x27
   1369c:	e7878593          	addi	a1,a5,-392 # 26e78 <halt_message+0x138>
   136a0:	000277b7          	lui	a5,0x27
   136a4:	54478513          	addi	a0,a5,1348 # 27544 <halt_message+0x804>
   136a8:	434040ef          	jal	17adc <_assert_fail>
   136ac:	fe842783          	lw	a5,-24(s0)
   136b0:	c007f793          	andi	a5,a5,-1024
   136b4:	00078513          	mv	a0,a5
   136b8:	01c12083          	lw	ra,28(sp)
   136bc:	01812403          	lw	s0,24(sp)
   136c0:	02010113          	addi	sp,sp,32
   136c4:	00008067          	ret

000136c8 <cap_page_directory_cap_get_capPDBasePtr>:
   136c8:	fe010113          	addi	sp,sp,-32
   136cc:	00112e23          	sw	ra,28(sp)
   136d0:	00812c23          	sw	s0,24(sp)
   136d4:	02010413          	addi	s0,sp,32
   136d8:	fea42423          	sw	a0,-24(s0)
   136dc:	feb42623          	sw	a1,-20(s0)
   136e0:	fe842783          	lw	a5,-24(s0)
   136e4:	00f7f713          	andi	a4,a5,15
   136e8:	00500793          	li	a5,5
   136ec:	02f70263          	beq	a4,a5,13710 <cap_page_directory_cap_get_capPDBasePtr+0x48>
   136f0:	0002b7b7          	lui	a5,0x2b
   136f4:	88078693          	addi	a3,a5,-1920 # 2a880 <__FUNCTION__.2166>
   136f8:	43900613          	li	a2,1081
   136fc:	000277b7          	lui	a5,0x27
   13700:	e7878593          	addi	a1,a5,-392 # 26e78 <halt_message+0x138>
   13704:	000277b7          	lui	a5,0x27
   13708:	57878513          	addi	a0,a5,1400 # 27578 <halt_message+0x838>
   1370c:	3d0040ef          	jal	17adc <_assert_fail>
   13710:	fe842703          	lw	a4,-24(s0)
   13714:	ffffc7b7          	lui	a5,0xffffc
   13718:	00f777b3          	and	a5,a4,a5
   1371c:	00078513          	mv	a0,a5
   13720:	01c12083          	lw	ra,28(sp)
   13724:	01812403          	lw	s0,24(sp)
   13728:	02010113          	addi	sp,sp,32
   1372c:	00008067          	ret

00013730 <cap_irq_handler_cap_new>:
   13730:	fd010113          	addi	sp,sp,-48
   13734:	02112623          	sw	ra,44(sp)
   13738:	02812423          	sw	s0,40(sp)
   1373c:	03010413          	addi	s0,sp,48
   13740:	fca42e23          	sw	a0,-36(s0)
   13744:	fe042023          	sw	zero,-32(s0)
   13748:	fe042223          	sw	zero,-28(s0)
   1374c:	fdc42783          	lw	a5,-36(s0)
   13750:	f007f793          	andi	a5,a5,-256
   13754:	02078263          	beqz	a5,13778 <cap_irq_handler_cap_new+0x48>
   13758:	0002b7b7          	lui	a5,0x2b
   1375c:	09478693          	addi	a3,a5,148 # 2b094 <__FUNCTION__.2171>
   13760:	44600613          	li	a2,1094
   13764:	000277b7          	lui	a5,0x27
   13768:	e7878593          	addi	a1,a5,-392 # 26e78 <halt_message+0x138>
   1376c:	000277b7          	lui	a5,0x27
   13770:	5b078513          	addi	a0,a5,1456 # 275b0 <halt_message+0x870>
   13774:	368040ef          	jal	17adc <_assert_fail>
   13778:	fe442703          	lw	a4,-28(s0)
   1377c:	fdc42783          	lw	a5,-36(s0)
   13780:	0ff7f793          	andi	a5,a5,255
